
rtarget:     file format elf64-x86-64


Disassembly of section .init:

0000000000400c48 <_init>:
  400c48:	48 83 ec 08          	sub    $0x8,%rsp
  400c4c:	48 8b 05 a5 43 20 00 	mov    0x2043a5(%rip),%rax        # 604ff8 <_DYNAMIC+0x1d0>
  400c53:	48 85 c0             	test   %rax,%rax
  400c56:	74 05                	je     400c5d <_init+0x15>
  400c58:	e8 43 02 00 00       	callq  400ea0 <socket@plt+0x10>
  400c5d:	48 83 c4 08          	add    $0x8,%rsp
  400c61:	c3                   	retq   

Disassembly of section .plt:

0000000000400c70 <strcasecmp@plt-0x10>:
  400c70:	ff 35 92 43 20 00    	pushq  0x204392(%rip)        # 605008 <_GLOBAL_OFFSET_TABLE_+0x8>
  400c76:	ff 25 94 43 20 00    	jmpq   *0x204394(%rip)        # 605010 <_GLOBAL_OFFSET_TABLE_+0x10>
  400c7c:	0f 1f 40 00          	nopl   0x0(%rax)

0000000000400c80 <strcasecmp@plt>:
  400c80:	ff 25 92 43 20 00    	jmpq   *0x204392(%rip)        # 605018 <_GLOBAL_OFFSET_TABLE_+0x18>
  400c86:	68 00 00 00 00       	pushq  $0x0
  400c8b:	e9 e0 ff ff ff       	jmpq   400c70 <_init+0x28>

0000000000400c90 <__errno_location@plt>:
  400c90:	ff 25 8a 43 20 00    	jmpq   *0x20438a(%rip)        # 605020 <_GLOBAL_OFFSET_TABLE_+0x20>
  400c96:	68 01 00 00 00       	pushq  $0x1
  400c9b:	e9 d0 ff ff ff       	jmpq   400c70 <_init+0x28>

0000000000400ca0 <srandom@plt>:
  400ca0:	ff 25 82 43 20 00    	jmpq   *0x204382(%rip)        # 605028 <_GLOBAL_OFFSET_TABLE_+0x28>
  400ca6:	68 02 00 00 00       	pushq  $0x2
  400cab:	e9 c0 ff ff ff       	jmpq   400c70 <_init+0x28>

0000000000400cb0 <strncmp@plt>:
  400cb0:	ff 25 7a 43 20 00    	jmpq   *0x20437a(%rip)        # 605030 <_GLOBAL_OFFSET_TABLE_+0x30>
  400cb6:	68 03 00 00 00       	pushq  $0x3
  400cbb:	e9 b0 ff ff ff       	jmpq   400c70 <_init+0x28>

0000000000400cc0 <strcpy@plt>:
  400cc0:	ff 25 72 43 20 00    	jmpq   *0x204372(%rip)        # 605038 <_GLOBAL_OFFSET_TABLE_+0x38>
  400cc6:	68 04 00 00 00       	pushq  $0x4
  400ccb:	e9 a0 ff ff ff       	jmpq   400c70 <_init+0x28>

0000000000400cd0 <puts@plt>:
  400cd0:	ff 25 6a 43 20 00    	jmpq   *0x20436a(%rip)        # 605040 <_GLOBAL_OFFSET_TABLE_+0x40>
  400cd6:	68 05 00 00 00       	pushq  $0x5
  400cdb:	e9 90 ff ff ff       	jmpq   400c70 <_init+0x28>

0000000000400ce0 <write@plt>:
  400ce0:	ff 25 62 43 20 00    	jmpq   *0x204362(%rip)        # 605048 <_GLOBAL_OFFSET_TABLE_+0x48>
  400ce6:	68 06 00 00 00       	pushq  $0x6
  400ceb:	e9 80 ff ff ff       	jmpq   400c70 <_init+0x28>

0000000000400cf0 <__stack_chk_fail@plt>:
  400cf0:	ff 25 5a 43 20 00    	jmpq   *0x20435a(%rip)        # 605050 <_GLOBAL_OFFSET_TABLE_+0x50>
  400cf6:	68 07 00 00 00       	pushq  $0x7
  400cfb:	e9 70 ff ff ff       	jmpq   400c70 <_init+0x28>

0000000000400d00 <mmap@plt>:
  400d00:	ff 25 52 43 20 00    	jmpq   *0x204352(%rip)        # 605058 <_GLOBAL_OFFSET_TABLE_+0x58>
  400d06:	68 08 00 00 00       	pushq  $0x8
  400d0b:	e9 60 ff ff ff       	jmpq   400c70 <_init+0x28>

0000000000400d10 <memset@plt>:
  400d10:	ff 25 4a 43 20 00    	jmpq   *0x20434a(%rip)        # 605060 <_GLOBAL_OFFSET_TABLE_+0x60>
  400d16:	68 09 00 00 00       	pushq  $0x9
  400d1b:	e9 50 ff ff ff       	jmpq   400c70 <_init+0x28>

0000000000400d20 <alarm@plt>:
  400d20:	ff 25 42 43 20 00    	jmpq   *0x204342(%rip)        # 605068 <_GLOBAL_OFFSET_TABLE_+0x68>
  400d26:	68 0a 00 00 00       	pushq  $0xa
  400d2b:	e9 40 ff ff ff       	jmpq   400c70 <_init+0x28>

0000000000400d30 <close@plt>:
  400d30:	ff 25 3a 43 20 00    	jmpq   *0x20433a(%rip)        # 605070 <_GLOBAL_OFFSET_TABLE_+0x70>
  400d36:	68 0b 00 00 00       	pushq  $0xb
  400d3b:	e9 30 ff ff ff       	jmpq   400c70 <_init+0x28>

0000000000400d40 <read@plt>:
  400d40:	ff 25 32 43 20 00    	jmpq   *0x204332(%rip)        # 605078 <_GLOBAL_OFFSET_TABLE_+0x78>
  400d46:	68 0c 00 00 00       	pushq  $0xc
  400d4b:	e9 20 ff ff ff       	jmpq   400c70 <_init+0x28>

0000000000400d50 <__libc_start_main@plt>:
  400d50:	ff 25 2a 43 20 00    	jmpq   *0x20432a(%rip)        # 605080 <_GLOBAL_OFFSET_TABLE_+0x80>
  400d56:	68 0d 00 00 00       	pushq  $0xd
  400d5b:	e9 10 ff ff ff       	jmpq   400c70 <_init+0x28>

0000000000400d60 <signal@plt>:
  400d60:	ff 25 22 43 20 00    	jmpq   *0x204322(%rip)        # 605088 <_GLOBAL_OFFSET_TABLE_+0x88>
  400d66:	68 0e 00 00 00       	pushq  $0xe
  400d6b:	e9 00 ff ff ff       	jmpq   400c70 <_init+0x28>

0000000000400d70 <gethostbyname@plt>:
  400d70:	ff 25 1a 43 20 00    	jmpq   *0x20431a(%rip)        # 605090 <_GLOBAL_OFFSET_TABLE_+0x90>
  400d76:	68 0f 00 00 00       	pushq  $0xf
  400d7b:	e9 f0 fe ff ff       	jmpq   400c70 <_init+0x28>

0000000000400d80 <__memmove_chk@plt>:
  400d80:	ff 25 12 43 20 00    	jmpq   *0x204312(%rip)        # 605098 <_GLOBAL_OFFSET_TABLE_+0x98>
  400d86:	68 10 00 00 00       	pushq  $0x10
  400d8b:	e9 e0 fe ff ff       	jmpq   400c70 <_init+0x28>

0000000000400d90 <strtol@plt>:
  400d90:	ff 25 0a 43 20 00    	jmpq   *0x20430a(%rip)        # 6050a0 <_GLOBAL_OFFSET_TABLE_+0xa0>
  400d96:	68 11 00 00 00       	pushq  $0x11
  400d9b:	e9 d0 fe ff ff       	jmpq   400c70 <_init+0x28>

0000000000400da0 <memcpy@plt>:
  400da0:	ff 25 02 43 20 00    	jmpq   *0x204302(%rip)        # 6050a8 <_GLOBAL_OFFSET_TABLE_+0xa8>
  400da6:	68 12 00 00 00       	pushq  $0x12
  400dab:	e9 c0 fe ff ff       	jmpq   400c70 <_init+0x28>

0000000000400db0 <time@plt>:
  400db0:	ff 25 fa 42 20 00    	jmpq   *0x2042fa(%rip)        # 6050b0 <_GLOBAL_OFFSET_TABLE_+0xb0>
  400db6:	68 13 00 00 00       	pushq  $0x13
  400dbb:	e9 b0 fe ff ff       	jmpq   400c70 <_init+0x28>

0000000000400dc0 <random@plt>:
  400dc0:	ff 25 f2 42 20 00    	jmpq   *0x2042f2(%rip)        # 6050b8 <_GLOBAL_OFFSET_TABLE_+0xb8>
  400dc6:	68 14 00 00 00       	pushq  $0x14
  400dcb:	e9 a0 fe ff ff       	jmpq   400c70 <_init+0x28>

0000000000400dd0 <_IO_getc@plt>:
  400dd0:	ff 25 ea 42 20 00    	jmpq   *0x2042ea(%rip)        # 6050c0 <_GLOBAL_OFFSET_TABLE_+0xc0>
  400dd6:	68 15 00 00 00       	pushq  $0x15
  400ddb:	e9 90 fe ff ff       	jmpq   400c70 <_init+0x28>

0000000000400de0 <__isoc99_sscanf@plt>:
  400de0:	ff 25 e2 42 20 00    	jmpq   *0x2042e2(%rip)        # 6050c8 <_GLOBAL_OFFSET_TABLE_+0xc8>
  400de6:	68 16 00 00 00       	pushq  $0x16
  400deb:	e9 80 fe ff ff       	jmpq   400c70 <_init+0x28>

0000000000400df0 <munmap@plt>:
  400df0:	ff 25 da 42 20 00    	jmpq   *0x2042da(%rip)        # 6050d0 <_GLOBAL_OFFSET_TABLE_+0xd0>
  400df6:	68 17 00 00 00       	pushq  $0x17
  400dfb:	e9 70 fe ff ff       	jmpq   400c70 <_init+0x28>

0000000000400e00 <__printf_chk@plt>:
  400e00:	ff 25 d2 42 20 00    	jmpq   *0x2042d2(%rip)        # 6050d8 <_GLOBAL_OFFSET_TABLE_+0xd8>
  400e06:	68 18 00 00 00       	pushq  $0x18
  400e0b:	e9 60 fe ff ff       	jmpq   400c70 <_init+0x28>

0000000000400e10 <fopen@plt>:
  400e10:	ff 25 ca 42 20 00    	jmpq   *0x2042ca(%rip)        # 6050e0 <_GLOBAL_OFFSET_TABLE_+0xe0>
  400e16:	68 19 00 00 00       	pushq  $0x19
  400e1b:	e9 50 fe ff ff       	jmpq   400c70 <_init+0x28>

0000000000400e20 <getopt@plt>:
  400e20:	ff 25 c2 42 20 00    	jmpq   *0x2042c2(%rip)        # 6050e8 <_GLOBAL_OFFSET_TABLE_+0xe8>
  400e26:	68 1a 00 00 00       	pushq  $0x1a
  400e2b:	e9 40 fe ff ff       	jmpq   400c70 <_init+0x28>

0000000000400e30 <strtoul@plt>:
  400e30:	ff 25 ba 42 20 00    	jmpq   *0x2042ba(%rip)        # 6050f0 <_GLOBAL_OFFSET_TABLE_+0xf0>
  400e36:	68 1b 00 00 00       	pushq  $0x1b
  400e3b:	e9 30 fe ff ff       	jmpq   400c70 <_init+0x28>

0000000000400e40 <gethostname@plt>:
  400e40:	ff 25 b2 42 20 00    	jmpq   *0x2042b2(%rip)        # 6050f8 <_GLOBAL_OFFSET_TABLE_+0xf8>
  400e46:	68 1c 00 00 00       	pushq  $0x1c
  400e4b:	e9 20 fe ff ff       	jmpq   400c70 <_init+0x28>

0000000000400e50 <exit@plt>:
  400e50:	ff 25 aa 42 20 00    	jmpq   *0x2042aa(%rip)        # 605100 <_GLOBAL_OFFSET_TABLE_+0x100>
  400e56:	68 1d 00 00 00       	pushq  $0x1d
  400e5b:	e9 10 fe ff ff       	jmpq   400c70 <_init+0x28>

0000000000400e60 <connect@plt>:
  400e60:	ff 25 a2 42 20 00    	jmpq   *0x2042a2(%rip)        # 605108 <_GLOBAL_OFFSET_TABLE_+0x108>
  400e66:	68 1e 00 00 00       	pushq  $0x1e
  400e6b:	e9 00 fe ff ff       	jmpq   400c70 <_init+0x28>

0000000000400e70 <__fprintf_chk@plt>:
  400e70:	ff 25 9a 42 20 00    	jmpq   *0x20429a(%rip)        # 605110 <_GLOBAL_OFFSET_TABLE_+0x110>
  400e76:	68 1f 00 00 00       	pushq  $0x1f
  400e7b:	e9 f0 fd ff ff       	jmpq   400c70 <_init+0x28>

0000000000400e80 <__sprintf_chk@plt>:
  400e80:	ff 25 92 42 20 00    	jmpq   *0x204292(%rip)        # 605118 <_GLOBAL_OFFSET_TABLE_+0x118>
  400e86:	68 20 00 00 00       	pushq  $0x20
  400e8b:	e9 e0 fd ff ff       	jmpq   400c70 <_init+0x28>

0000000000400e90 <socket@plt>:
  400e90:	ff 25 8a 42 20 00    	jmpq   *0x20428a(%rip)        # 605120 <_GLOBAL_OFFSET_TABLE_+0x120>
  400e96:	68 21 00 00 00       	pushq  $0x21
  400e9b:	e9 d0 fd ff ff       	jmpq   400c70 <_init+0x28>

Disassembly of section .plt.got:

0000000000400ea0 <.plt.got>:
  400ea0:	ff 25 52 41 20 00    	jmpq   *0x204152(%rip)        # 604ff8 <_DYNAMIC+0x1d0>
  400ea6:	66 90                	xchg   %ax,%ax

Disassembly of section .text:

0000000000400eb0 <_start>:
  400eb0:	31 ed                	xor    %ebp,%ebp
  400eb2:	49 89 d1             	mov    %rdx,%r9
  400eb5:	5e                   	pop    %rsi
  400eb6:	48 89 e2             	mov    %rsp,%rdx
  400eb9:	48 83 e4 f0          	and    $0xfffffffffffffff0,%rsp
  400ebd:	50                   	push   %rax
  400ebe:	54                   	push   %rsp
  400ebf:	49 c7 c0 90 2f 40 00 	mov    $0x402f90,%r8
  400ec6:	48 c7 c1 20 2f 40 00 	mov    $0x402f20,%rcx
  400ecd:	48 c7 c7 b5 11 40 00 	mov    $0x4011b5,%rdi
  400ed4:	e8 77 fe ff ff       	callq  400d50 <__libc_start_main@plt>
  400ed9:	f4                   	hlt    
  400eda:	66 0f 1f 44 00 00    	nopw   0x0(%rax,%rax,1)

0000000000400ee0 <deregister_tm_clones>:
  400ee0:	b8 b7 54 60 00       	mov    $0x6054b7,%eax
  400ee5:	55                   	push   %rbp
  400ee6:	48 2d b0 54 60 00    	sub    $0x6054b0,%rax
  400eec:	48 83 f8 0e          	cmp    $0xe,%rax
  400ef0:	48 89 e5             	mov    %rsp,%rbp
  400ef3:	76 1b                	jbe    400f10 <deregister_tm_clones+0x30>
  400ef5:	b8 00 00 00 00       	mov    $0x0,%eax
  400efa:	48 85 c0             	test   %rax,%rax
  400efd:	74 11                	je     400f10 <deregister_tm_clones+0x30>
  400eff:	5d                   	pop    %rbp
  400f00:	bf b0 54 60 00       	mov    $0x6054b0,%edi
  400f05:	ff e0                	jmpq   *%rax
  400f07:	66 0f 1f 84 00 00 00 	nopw   0x0(%rax,%rax,1)
  400f0e:	00 00 
  400f10:	5d                   	pop    %rbp
  400f11:	c3                   	retq   
  400f12:	0f 1f 40 00          	nopl   0x0(%rax)
  400f16:	66 2e 0f 1f 84 00 00 	nopw   %cs:0x0(%rax,%rax,1)
  400f1d:	00 00 00 

0000000000400f20 <register_tm_clones>:
  400f20:	be b0 54 60 00       	mov    $0x6054b0,%esi
  400f25:	55                   	push   %rbp
  400f26:	48 81 ee b0 54 60 00 	sub    $0x6054b0,%rsi
  400f2d:	48 c1 fe 03          	sar    $0x3,%rsi
  400f31:	48 89 e5             	mov    %rsp,%rbp
  400f34:	48 89 f0             	mov    %rsi,%rax
  400f37:	48 c1 e8 3f          	shr    $0x3f,%rax
  400f3b:	48 01 c6             	add    %rax,%rsi
  400f3e:	48 d1 fe             	sar    %rsi
  400f41:	74 15                	je     400f58 <register_tm_clones+0x38>
  400f43:	b8 00 00 00 00       	mov    $0x0,%eax
  400f48:	48 85 c0             	test   %rax,%rax
  400f4b:	74 0b                	je     400f58 <register_tm_clones+0x38>
  400f4d:	5d                   	pop    %rbp
  400f4e:	bf b0 54 60 00       	mov    $0x6054b0,%edi
  400f53:	ff e0                	jmpq   *%rax
  400f55:	0f 1f 00             	nopl   (%rax)
  400f58:	5d                   	pop    %rbp
  400f59:	c3                   	retq   
  400f5a:	66 0f 1f 44 00 00    	nopw   0x0(%rax,%rax,1)

0000000000400f60 <__do_global_dtors_aux>:
  400f60:	80 3d 81 45 20 00 00 	cmpb   $0x0,0x204581(%rip)        # 6054e8 <completed.7585>
  400f67:	75 11                	jne    400f7a <__do_global_dtors_aux+0x1a>
  400f69:	55                   	push   %rbp
  400f6a:	48 89 e5             	mov    %rsp,%rbp
  400f6d:	e8 6e ff ff ff       	callq  400ee0 <deregister_tm_clones>
  400f72:	5d                   	pop    %rbp
  400f73:	c6 05 6e 45 20 00 01 	movb   $0x1,0x20456e(%rip)        # 6054e8 <completed.7585>
  400f7a:	f3 c3                	repz retq 
  400f7c:	0f 1f 40 00          	nopl   0x0(%rax)

0000000000400f80 <frame_dummy>:
  400f80:	bf 20 4e 60 00       	mov    $0x604e20,%edi
  400f85:	48 83 3f 00          	cmpq   $0x0,(%rdi)
  400f89:	75 05                	jne    400f90 <frame_dummy+0x10>
  400f8b:	eb 93                	jmp    400f20 <register_tm_clones>
  400f8d:	0f 1f 00             	nopl   (%rax)
  400f90:	b8 00 00 00 00       	mov    $0x0,%eax
  400f95:	48 85 c0             	test   %rax,%rax
  400f98:	74 f1                	je     400f8b <frame_dummy+0xb>
  400f9a:	55                   	push   %rbp
  400f9b:	48 89 e5             	mov    %rsp,%rbp
  400f9e:	ff d0                	callq  *%rax
  400fa0:	5d                   	pop    %rbp
  400fa1:	e9 7a ff ff ff       	jmpq   400f20 <register_tm_clones>

0000000000400fa6 <usage>:
  400fa6:	48 83 ec 08          	sub    $0x8,%rsp
  400faa:	48 89 fa             	mov    %rdi,%rdx
  400fad:	83 3d 74 45 20 00 00 	cmpl   $0x0,0x204574(%rip)        # 605528 <is_checker>
  400fb4:	74 3e                	je     400ff4 <usage+0x4e>
  400fb6:	be a8 2f 40 00       	mov    $0x402fa8,%esi
  400fbb:	bf 01 00 00 00       	mov    $0x1,%edi
  400fc0:	b8 00 00 00 00       	mov    $0x0,%eax
  400fc5:	e8 36 fe ff ff       	callq  400e00 <__printf_chk@plt>
  400fca:	bf e0 2f 40 00       	mov    $0x402fe0,%edi
  400fcf:	e8 fc fc ff ff       	callq  400cd0 <puts@plt>
  400fd4:	bf 58 31 40 00       	mov    $0x403158,%edi
  400fd9:	e8 f2 fc ff ff       	callq  400cd0 <puts@plt>
  400fde:	bf 08 30 40 00       	mov    $0x403008,%edi
  400fe3:	e8 e8 fc ff ff       	callq  400cd0 <puts@plt>
  400fe8:	bf 72 31 40 00       	mov    $0x403172,%edi
  400fed:	e8 de fc ff ff       	callq  400cd0 <puts@plt>
  400ff2:	eb 32                	jmp    401026 <usage+0x80>
  400ff4:	be 8e 31 40 00       	mov    $0x40318e,%esi
  400ff9:	bf 01 00 00 00       	mov    $0x1,%edi
  400ffe:	b8 00 00 00 00       	mov    $0x0,%eax
  401003:	e8 f8 fd ff ff       	callq  400e00 <__printf_chk@plt>
  401008:	bf 30 30 40 00       	mov    $0x403030,%edi
  40100d:	e8 be fc ff ff       	callq  400cd0 <puts@plt>
  401012:	bf 58 30 40 00       	mov    $0x403058,%edi
  401017:	e8 b4 fc ff ff       	callq  400cd0 <puts@plt>
  40101c:	bf ac 31 40 00       	mov    $0x4031ac,%edi
  401021:	e8 aa fc ff ff       	callq  400cd0 <puts@plt>
  401026:	bf 00 00 00 00       	mov    $0x0,%edi
  40102b:	e8 20 fe ff ff       	callq  400e50 <exit@plt>

0000000000401030 <initialize_target>:
  401030:	55                   	push   %rbp
  401031:	53                   	push   %rbx
  401032:	48 81 ec 18 21 00 00 	sub    $0x2118,%rsp
  401039:	89 f5                	mov    %esi,%ebp
  40103b:	64 48 8b 04 25 28 00 	mov    %fs:0x28,%rax
  401042:	00 00 
  401044:	48 89 84 24 08 21 00 	mov    %rax,0x2108(%rsp)
  40104b:	00 
  40104c:	31 c0                	xor    %eax,%eax
  40104e:	89 3d c4 44 20 00    	mov    %edi,0x2044c4(%rip)        # 605518 <check_level>
  401054:	8b 3d 0e 41 20 00    	mov    0x20410e(%rip),%edi        # 605168 <target_id>
  40105a:	e8 96 1e 00 00       	callq  402ef5 <gencookie>
  40105f:	89 05 bf 44 20 00    	mov    %eax,0x2044bf(%rip)        # 605524 <cookie>
  401065:	89 c7                	mov    %eax,%edi
  401067:	e8 89 1e 00 00       	callq  402ef5 <gencookie>
  40106c:	89 05 ae 44 20 00    	mov    %eax,0x2044ae(%rip)        # 605520 <authkey>
  401072:	8b 05 f0 40 20 00    	mov    0x2040f0(%rip),%eax        # 605168 <target_id>
  401078:	8d 78 01             	lea    0x1(%rax),%edi
  40107b:	e8 20 fc ff ff       	callq  400ca0 <srandom@plt>
  401080:	e8 3b fd ff ff       	callq  400dc0 <random@plt>
  401085:	89 c7                	mov    %eax,%edi
  401087:	e8 03 03 00 00       	callq  40138f <scramble>
  40108c:	89 c3                	mov    %eax,%ebx
  40108e:	85 ed                	test   %ebp,%ebp
  401090:	74 18                	je     4010aa <initialize_target+0x7a>
  401092:	bf 00 00 00 00       	mov    $0x0,%edi
  401097:	e8 14 fd ff ff       	callq  400db0 <time@plt>
  40109c:	89 c7                	mov    %eax,%edi
  40109e:	e8 fd fb ff ff       	callq  400ca0 <srandom@plt>
  4010a3:	e8 18 fd ff ff       	callq  400dc0 <random@plt>
  4010a8:	eb 05                	jmp    4010af <initialize_target+0x7f>
  4010aa:	b8 00 00 00 00       	mov    $0x0,%eax
  4010af:	01 c3                	add    %eax,%ebx
  4010b1:	0f b7 db             	movzwl %bx,%ebx
  4010b4:	8d 04 dd 00 01 00 00 	lea    0x100(,%rbx,8),%eax
  4010bb:	89 c0                	mov    %eax,%eax
  4010bd:	48 89 05 dc 43 20 00 	mov    %rax,0x2043dc(%rip)        # 6054a0 <buf_offset>
  4010c4:	c6 05 7d 50 20 00 72 	movb   $0x72,0x20507d(%rip)        # 606148 <target_prefix>
  4010cb:	83 3d d6 43 20 00 00 	cmpl   $0x0,0x2043d6(%rip)        # 6054a8 <notify>
  4010d2:	0f 84 bb 00 00 00    	je     401193 <initialize_target+0x163>
  4010d8:	83 3d 49 44 20 00 00 	cmpl   $0x0,0x204449(%rip)        # 605528 <is_checker>
  4010df:	0f 85 ae 00 00 00    	jne    401193 <initialize_target+0x163>
  4010e5:	be 00 01 00 00       	mov    $0x100,%esi
  4010ea:	48 89 e7             	mov    %rsp,%rdi
  4010ed:	e8 4e fd ff ff       	callq  400e40 <gethostname@plt>
  4010f2:	85 c0                	test   %eax,%eax
  4010f4:	74 25                	je     40111b <initialize_target+0xeb>
  4010f6:	bf 88 30 40 00       	mov    $0x403088,%edi
  4010fb:	e8 d0 fb ff ff       	callq  400cd0 <puts@plt>
  401100:	bf 08 00 00 00       	mov    $0x8,%edi
  401105:	e8 46 fd ff ff       	callq  400e50 <exit@plt>
  40110a:	48 89 e6             	mov    %rsp,%rsi
  40110d:	e8 6e fb ff ff       	callq  400c80 <strcasecmp@plt>
  401112:	85 c0                	test   %eax,%eax
  401114:	74 21                	je     401137 <initialize_target+0x107>
  401116:	83 c3 01             	add    $0x1,%ebx
  401119:	eb 05                	jmp    401120 <initialize_target+0xf0>
  40111b:	bb 00 00 00 00       	mov    $0x0,%ebx
  401120:	48 63 c3             	movslq %ebx,%rax
  401123:	48 8b 3c c5 80 51 60 	mov    0x605180(,%rax,8),%rdi
  40112a:	00 
  40112b:	48 85 ff             	test   %rdi,%rdi
  40112e:	75 da                	jne    40110a <initialize_target+0xda>
  401130:	b8 00 00 00 00       	mov    $0x0,%eax
  401135:	eb 05                	jmp    40113c <initialize_target+0x10c>
  401137:	b8 01 00 00 00       	mov    $0x1,%eax
  40113c:	85 c0                	test   %eax,%eax
  40113e:	75 1c                	jne    40115c <initialize_target+0x12c>
  401140:	48 89 e2             	mov    %rsp,%rdx
  401143:	be c0 30 40 00       	mov    $0x4030c0,%esi
  401148:	bf 01 00 00 00       	mov    $0x1,%edi
  40114d:	e8 ae fc ff ff       	callq  400e00 <__printf_chk@plt>
  401152:	bf 08 00 00 00       	mov    $0x8,%edi
  401157:	e8 f4 fc ff ff       	callq  400e50 <exit@plt>
  40115c:	48 8d bc 24 00 01 00 	lea    0x100(%rsp),%rdi
  401163:	00 
  401164:	e8 f6 1a 00 00       	callq  402c5f <init_driver>
  401169:	85 c0                	test   %eax,%eax
  40116b:	79 26                	jns    401193 <initialize_target+0x163>
  40116d:	48 8d 94 24 00 01 00 	lea    0x100(%rsp),%rdx
  401174:	00 
  401175:	be 00 31 40 00       	mov    $0x403100,%esi
  40117a:	bf 01 00 00 00       	mov    $0x1,%edi
  40117f:	b8 00 00 00 00       	mov    $0x0,%eax
  401184:	e8 77 fc ff ff       	callq  400e00 <__printf_chk@plt>
  401189:	bf 08 00 00 00       	mov    $0x8,%edi
  40118e:	e8 bd fc ff ff       	callq  400e50 <exit@plt>
  401193:	48 8b 84 24 08 21 00 	mov    0x2108(%rsp),%rax
  40119a:	00 
  40119b:	64 48 33 04 25 28 00 	xor    %fs:0x28,%rax
  4011a2:	00 00 
  4011a4:	74 05                	je     4011ab <initialize_target+0x17b>
  4011a6:	e8 45 fb ff ff       	callq  400cf0 <__stack_chk_fail@plt>
  4011ab:	48 81 c4 18 21 00 00 	add    $0x2118,%rsp
  4011b2:	5b                   	pop    %rbx
  4011b3:	5d                   	pop    %rbp
  4011b4:	c3                   	retq   

00000000004011b5 <main>:
  4011b5:	41 56                	push   %r14
  4011b7:	41 55                	push   %r13
  4011b9:	41 54                	push   %r12
  4011bb:	55                   	push   %rbp
  4011bc:	53                   	push   %rbx
  4011bd:	41 89 fc             	mov    %edi,%r12d
  4011c0:	48 89 f3             	mov    %rsi,%rbx
  4011c3:	be 9a 1f 40 00       	mov    $0x401f9a,%esi
  4011c8:	bf 0b 00 00 00       	mov    $0xb,%edi
  4011cd:	e8 8e fb ff ff       	callq  400d60 <signal@plt>
  4011d2:	be 4c 1f 40 00       	mov    $0x401f4c,%esi
  4011d7:	bf 07 00 00 00       	mov    $0x7,%edi
  4011dc:	e8 7f fb ff ff       	callq  400d60 <signal@plt>
  4011e1:	be e8 1f 40 00       	mov    $0x401fe8,%esi
  4011e6:	bf 04 00 00 00       	mov    $0x4,%edi
  4011eb:	e8 70 fb ff ff       	callq  400d60 <signal@plt>
  4011f0:	83 3d 31 43 20 00 00 	cmpl   $0x0,0x204331(%rip)        # 605528 <is_checker>
  4011f7:	74 20                	je     401219 <main+0x64>
  4011f9:	be 36 20 40 00       	mov    $0x402036,%esi
  4011fe:	bf 0e 00 00 00       	mov    $0xe,%edi
  401203:	e8 58 fb ff ff       	callq  400d60 <signal@plt>
  401208:	bf 05 00 00 00       	mov    $0x5,%edi
  40120d:	e8 0e fb ff ff       	callq  400d20 <alarm@plt>
  401212:	bd ca 31 40 00       	mov    $0x4031ca,%ebp
  401217:	eb 05                	jmp    40121e <main+0x69>
  401219:	bd c5 31 40 00       	mov    $0x4031c5,%ebp
  40121e:	48 8b 05 9b 42 20 00 	mov    0x20429b(%rip),%rax        # 6054c0 <stdin@@GLIBC_2.2.5>
  401225:	48 89 05 e4 42 20 00 	mov    %rax,0x2042e4(%rip)        # 605510 <infile>
  40122c:	41 bd 00 00 00 00    	mov    $0x0,%r13d
  401232:	41 be 00 00 00 00    	mov    $0x0,%r14d
  401238:	e9 c6 00 00 00       	jmpq   401303 <main+0x14e>
  40123d:	83 e8 61             	sub    $0x61,%eax
  401240:	3c 10                	cmp    $0x10,%al
  401242:	0f 87 9c 00 00 00    	ja     4012e4 <main+0x12f>
  401248:	0f b6 c0             	movzbl %al,%eax
  40124b:	ff 24 c5 10 32 40 00 	jmpq   *0x403210(,%rax,8)
  401252:	48 8b 3b             	mov    (%rbx),%rdi
  401255:	e8 4c fd ff ff       	callq  400fa6 <usage>
  40125a:	be 8d 34 40 00       	mov    $0x40348d,%esi
  40125f:	48 8b 3d 62 42 20 00 	mov    0x204262(%rip),%rdi        # 6054c8 <optarg@@GLIBC_2.2.5>
  401266:	e8 a5 fb ff ff       	callq  400e10 <fopen@plt>
  40126b:	48 89 05 9e 42 20 00 	mov    %rax,0x20429e(%rip)        # 605510 <infile>
  401272:	48 85 c0             	test   %rax,%rax
  401275:	0f 85 88 00 00 00    	jne    401303 <main+0x14e>
  40127b:	48 8b 0d 46 42 20 00 	mov    0x204246(%rip),%rcx        # 6054c8 <optarg@@GLIBC_2.2.5>
  401282:	ba d2 31 40 00       	mov    $0x4031d2,%edx
  401287:	be 01 00 00 00       	mov    $0x1,%esi
  40128c:	48 8b 3d 4d 42 20 00 	mov    0x20424d(%rip),%rdi        # 6054e0 <stderr@@GLIBC_2.2.5>
  401293:	e8 d8 fb ff ff       	callq  400e70 <__fprintf_chk@plt>
  401298:	b8 01 00 00 00       	mov    $0x1,%eax
  40129d:	e9 e4 00 00 00       	jmpq   401386 <main+0x1d1>
  4012a2:	ba 10 00 00 00       	mov    $0x10,%edx
  4012a7:	be 00 00 00 00       	mov    $0x0,%esi
  4012ac:	48 8b 3d 15 42 20 00 	mov    0x204215(%rip),%rdi        # 6054c8 <optarg@@GLIBC_2.2.5>
  4012b3:	e8 78 fb ff ff       	callq  400e30 <strtoul@plt>
  4012b8:	41 89 c6             	mov    %eax,%r14d
  4012bb:	eb 46                	jmp    401303 <main+0x14e>
  4012bd:	ba 0a 00 00 00       	mov    $0xa,%edx
  4012c2:	be 00 00 00 00       	mov    $0x0,%esi
  4012c7:	48 8b 3d fa 41 20 00 	mov    0x2041fa(%rip),%rdi        # 6054c8 <optarg@@GLIBC_2.2.5>
  4012ce:	e8 bd fa ff ff       	callq  400d90 <strtol@plt>
  4012d3:	41 89 c5             	mov    %eax,%r13d
  4012d6:	eb 2b                	jmp    401303 <main+0x14e>
  4012d8:	c7 05 c6 41 20 00 00 	movl   $0x0,0x2041c6(%rip)        # 6054a8 <notify>
  4012df:	00 00 00 
  4012e2:	eb 1f                	jmp    401303 <main+0x14e>
  4012e4:	0f be d2             	movsbl %dl,%edx
  4012e7:	be ef 31 40 00       	mov    $0x4031ef,%esi
  4012ec:	bf 01 00 00 00       	mov    $0x1,%edi
  4012f1:	b8 00 00 00 00       	mov    $0x0,%eax
  4012f6:	e8 05 fb ff ff       	callq  400e00 <__printf_chk@plt>
  4012fb:	48 8b 3b             	mov    (%rbx),%rdi
  4012fe:	e8 a3 fc ff ff       	callq  400fa6 <usage>
  401303:	48 89 ea             	mov    %rbp,%rdx
  401306:	48 89 de             	mov    %rbx,%rsi
  401309:	44 89 e7             	mov    %r12d,%edi
  40130c:	e8 0f fb ff ff       	callq  400e20 <getopt@plt>
  401311:	89 c2                	mov    %eax,%edx
  401313:	3c ff                	cmp    $0xff,%al
  401315:	0f 85 22 ff ff ff    	jne    40123d <main+0x88>
  40131b:	be 01 00 00 00       	mov    $0x1,%esi
  401320:	44 89 ef             	mov    %r13d,%edi
  401323:	e8 08 fd ff ff       	callq  401030 <initialize_target>
  401328:	83 3d f9 41 20 00 00 	cmpl   $0x0,0x2041f9(%rip)        # 605528 <is_checker>
  40132f:	74 2a                	je     40135b <main+0x1a6>
  401331:	44 3b 35 e8 41 20 00 	cmp    0x2041e8(%rip),%r14d        # 605520 <authkey>
  401338:	74 21                	je     40135b <main+0x1a6>
  40133a:	44 89 f2             	mov    %r14d,%edx
  40133d:	be 28 31 40 00       	mov    $0x403128,%esi
  401342:	bf 01 00 00 00       	mov    $0x1,%edi
  401347:	b8 00 00 00 00       	mov    $0x0,%eax
  40134c:	e8 af fa ff ff       	callq  400e00 <__printf_chk@plt>
  401351:	b8 00 00 00 00       	mov    $0x0,%eax
  401356:	e8 8d 08 00 00       	callq  401be8 <check_fail>
  40135b:	8b 15 c3 41 20 00    	mov    0x2041c3(%rip),%edx        # 605524 <cookie>
  401361:	be 02 32 40 00       	mov    $0x403202,%esi
  401366:	bf 01 00 00 00       	mov    $0x1,%edi
  40136b:	b8 00 00 00 00       	mov    $0x0,%eax
  401370:	e8 8b fa ff ff       	callq  400e00 <__printf_chk@plt>
  401375:	48 8b 3d 24 41 20 00 	mov    0x204124(%rip),%rdi        # 6054a0 <buf_offset>
  40137c:	e8 08 0d 00 00       	callq  402089 <launch>
  401381:	b8 00 00 00 00       	mov    $0x0,%eax
  401386:	5b                   	pop    %rbx
  401387:	5d                   	pop    %rbp
  401388:	41 5c                	pop    %r12
  40138a:	41 5d                	pop    %r13
  40138c:	41 5e                	pop    %r14
  40138e:	c3                   	retq   

000000000040138f <scramble>:
  40138f:	48 83 ec 38          	sub    $0x38,%rsp
  401393:	64 48 8b 04 25 28 00 	mov    %fs:0x28,%rax
  40139a:	00 00 
  40139c:	48 89 44 24 28       	mov    %rax,0x28(%rsp)
  4013a1:	31 c0                	xor    %eax,%eax
  4013a3:	eb 10                	jmp    4013b5 <scramble+0x26>
  4013a5:	69 d0 24 7c 00 00    	imul   $0x7c24,%eax,%edx
  4013ab:	01 fa                	add    %edi,%edx
  4013ad:	89 c1                	mov    %eax,%ecx
  4013af:	89 14 8c             	mov    %edx,(%rsp,%rcx,4)
  4013b2:	83 c0 01             	add    $0x1,%eax
  4013b5:	83 f8 09             	cmp    $0x9,%eax
  4013b8:	76 eb                	jbe    4013a5 <scramble+0x16>
  4013ba:	8b 44 24 08          	mov    0x8(%rsp),%eax
  4013be:	69 c0 8c 8c 00 00    	imul   $0x8c8c,%eax,%eax
  4013c4:	89 44 24 08          	mov    %eax,0x8(%rsp)
  4013c8:	8b 04 24             	mov    (%rsp),%eax
  4013cb:	69 c0 21 6d 00 00    	imul   $0x6d21,%eax,%eax
  4013d1:	89 04 24             	mov    %eax,(%rsp)
  4013d4:	8b 44 24 08          	mov    0x8(%rsp),%eax
  4013d8:	69 c0 b7 59 00 00    	imul   $0x59b7,%eax,%eax
  4013de:	89 44 24 08          	mov    %eax,0x8(%rsp)
  4013e2:	8b 44 24 14          	mov    0x14(%rsp),%eax
  4013e6:	69 c0 36 a9 00 00    	imul   $0xa936,%eax,%eax
  4013ec:	89 44 24 14          	mov    %eax,0x14(%rsp)
  4013f0:	8b 44 24 0c          	mov    0xc(%rsp),%eax
  4013f4:	69 c0 d7 26 00 00    	imul   $0x26d7,%eax,%eax
  4013fa:	89 44 24 0c          	mov    %eax,0xc(%rsp)
  4013fe:	8b 44 24 24          	mov    0x24(%rsp),%eax
  401402:	69 c0 20 34 00 00    	imul   $0x3420,%eax,%eax
  401408:	89 44 24 24          	mov    %eax,0x24(%rsp)
  40140c:	8b 44 24 14          	mov    0x14(%rsp),%eax
  401410:	69 c0 68 10 00 00    	imul   $0x1068,%eax,%eax
  401416:	89 44 24 14          	mov    %eax,0x14(%rsp)
  40141a:	8b 44 24 0c          	mov    0xc(%rsp),%eax
  40141e:	69 c0 88 f6 00 00    	imul   $0xf688,%eax,%eax
  401424:	89 44 24 0c          	mov    %eax,0xc(%rsp)
  401428:	8b 44 24 0c          	mov    0xc(%rsp),%eax
  40142c:	69 c0 ba cc 00 00    	imul   $0xccba,%eax,%eax
  401432:	89 44 24 0c          	mov    %eax,0xc(%rsp)
  401436:	8b 44 24 10          	mov    0x10(%rsp),%eax
  40143a:	69 c0 56 fe 00 00    	imul   $0xfe56,%eax,%eax
  401440:	89 44 24 10          	mov    %eax,0x10(%rsp)
  401444:	8b 04 24             	mov    (%rsp),%eax
  401447:	69 c0 bd 14 00 00    	imul   $0x14bd,%eax,%eax
  40144d:	89 04 24             	mov    %eax,(%rsp)
  401450:	8b 44 24 1c          	mov    0x1c(%rsp),%eax
  401454:	69 c0 a5 58 00 00    	imul   $0x58a5,%eax,%eax
  40145a:	89 44 24 1c          	mov    %eax,0x1c(%rsp)
  40145e:	8b 44 24 0c          	mov    0xc(%rsp),%eax
  401462:	69 c0 e3 a2 00 00    	imul   $0xa2e3,%eax,%eax
  401468:	89 44 24 0c          	mov    %eax,0xc(%rsp)
  40146c:	8b 44 24 04          	mov    0x4(%rsp),%eax
  401470:	69 c0 a7 9d 00 00    	imul   $0x9da7,%eax,%eax
  401476:	89 44 24 04          	mov    %eax,0x4(%rsp)
  40147a:	8b 44 24 18          	mov    0x18(%rsp),%eax
  40147e:	69 c0 c8 82 00 00    	imul   $0x82c8,%eax,%eax
  401484:	89 44 24 18          	mov    %eax,0x18(%rsp)
  401488:	8b 44 24 04          	mov    0x4(%rsp),%eax
  40148c:	69 c0 07 ec 00 00    	imul   $0xec07,%eax,%eax
  401492:	89 44 24 04          	mov    %eax,0x4(%rsp)
  401496:	8b 04 24             	mov    (%rsp),%eax
  401499:	69 c0 d8 5d 00 00    	imul   $0x5dd8,%eax,%eax
  40149f:	89 04 24             	mov    %eax,(%rsp)
  4014a2:	8b 44 24 10          	mov    0x10(%rsp),%eax
  4014a6:	69 c0 d7 c1 00 00    	imul   $0xc1d7,%eax,%eax
  4014ac:	89 44 24 10          	mov    %eax,0x10(%rsp)
  4014b0:	8b 44 24 18          	mov    0x18(%rsp),%eax
  4014b4:	69 c0 d3 32 00 00    	imul   $0x32d3,%eax,%eax
  4014ba:	89 44 24 18          	mov    %eax,0x18(%rsp)
  4014be:	8b 44 24 18          	mov    0x18(%rsp),%eax
  4014c2:	69 c0 33 6e 00 00    	imul   $0x6e33,%eax,%eax
  4014c8:	89 44 24 18          	mov    %eax,0x18(%rsp)
  4014cc:	8b 44 24 24          	mov    0x24(%rsp),%eax
  4014d0:	69 c0 f9 0d 00 00    	imul   $0xdf9,%eax,%eax
  4014d6:	89 44 24 24          	mov    %eax,0x24(%rsp)
  4014da:	8b 44 24 14          	mov    0x14(%rsp),%eax
  4014de:	c1 e0 0b             	shl    $0xb,%eax
  4014e1:	89 44 24 14          	mov    %eax,0x14(%rsp)
  4014e5:	8b 44 24 20          	mov    0x20(%rsp),%eax
  4014e9:	69 c0 a0 dc 00 00    	imul   $0xdca0,%eax,%eax
  4014ef:	89 44 24 20          	mov    %eax,0x20(%rsp)
  4014f3:	8b 44 24 04          	mov    0x4(%rsp),%eax
  4014f7:	69 c0 66 3c 00 00    	imul   $0x3c66,%eax,%eax
  4014fd:	89 44 24 04          	mov    %eax,0x4(%rsp)
  401501:	8b 44 24 04          	mov    0x4(%rsp),%eax
  401505:	69 c0 b1 51 00 00    	imul   $0x51b1,%eax,%eax
  40150b:	89 44 24 04          	mov    %eax,0x4(%rsp)
  40150f:	8b 04 24             	mov    (%rsp),%eax
  401512:	69 c0 f9 bd 00 00    	imul   $0xbdf9,%eax,%eax
  401518:	89 04 24             	mov    %eax,(%rsp)
  40151b:	8b 44 24 0c          	mov    0xc(%rsp),%eax
  40151f:	69 c0 b1 0f 00 00    	imul   $0xfb1,%eax,%eax
  401525:	89 44 24 0c          	mov    %eax,0xc(%rsp)
  401529:	8b 44 24 10          	mov    0x10(%rsp),%eax
  40152d:	69 c0 ef 6b 00 00    	imul   $0x6bef,%eax,%eax
  401533:	89 44 24 10          	mov    %eax,0x10(%rsp)
  401537:	8b 44 24 0c          	mov    0xc(%rsp),%eax
  40153b:	69 c0 82 59 00 00    	imul   $0x5982,%eax,%eax
  401541:	89 44 24 0c          	mov    %eax,0xc(%rsp)
  401545:	8b 44 24 08          	mov    0x8(%rsp),%eax
  401549:	69 c0 78 22 00 00    	imul   $0x2278,%eax,%eax
  40154f:	89 44 24 08          	mov    %eax,0x8(%rsp)
  401553:	8b 44 24 04          	mov    0x4(%rsp),%eax
  401557:	69 c0 1f c3 00 00    	imul   $0xc31f,%eax,%eax
  40155d:	89 44 24 04          	mov    %eax,0x4(%rsp)
  401561:	8b 44 24 10          	mov    0x10(%rsp),%eax
  401565:	69 c0 9f eb 00 00    	imul   $0xeb9f,%eax,%eax
  40156b:	89 44 24 10          	mov    %eax,0x10(%rsp)
  40156f:	8b 44 24 04          	mov    0x4(%rsp),%eax
  401573:	69 c0 a8 67 00 00    	imul   $0x67a8,%eax,%eax
  401579:	89 44 24 04          	mov    %eax,0x4(%rsp)
  40157d:	8b 44 24 14          	mov    0x14(%rsp),%eax
  401581:	69 c0 88 d8 00 00    	imul   $0xd888,%eax,%eax
  401587:	89 44 24 14          	mov    %eax,0x14(%rsp)
  40158b:	8b 44 24 1c          	mov    0x1c(%rsp),%eax
  40158f:	69 c0 85 18 00 00    	imul   $0x1885,%eax,%eax
  401595:	89 44 24 1c          	mov    %eax,0x1c(%rsp)
  401599:	8b 44 24 20          	mov    0x20(%rsp),%eax
  40159d:	69 c0 25 f4 00 00    	imul   $0xf425,%eax,%eax
  4015a3:	89 44 24 20          	mov    %eax,0x20(%rsp)
  4015a7:	8b 44 24 24          	mov    0x24(%rsp),%eax
  4015ab:	69 c0 0e e9 00 00    	imul   $0xe90e,%eax,%eax
  4015b1:	89 44 24 24          	mov    %eax,0x24(%rsp)
  4015b5:	8b 44 24 10          	mov    0x10(%rsp),%eax
  4015b9:	69 c0 e0 44 00 00    	imul   $0x44e0,%eax,%eax
  4015bf:	89 44 24 10          	mov    %eax,0x10(%rsp)
  4015c3:	8b 44 24 18          	mov    0x18(%rsp),%eax
  4015c7:	69 c0 ae fa 00 00    	imul   $0xfaae,%eax,%eax
  4015cd:	89 44 24 18          	mov    %eax,0x18(%rsp)
  4015d1:	8b 44 24 0c          	mov    0xc(%rsp),%eax
  4015d5:	69 c0 09 6f 00 00    	imul   $0x6f09,%eax,%eax
  4015db:	89 44 24 0c          	mov    %eax,0xc(%rsp)
  4015df:	8b 44 24 0c          	mov    0xc(%rsp),%eax
  4015e3:	69 c0 03 bc 00 00    	imul   $0xbc03,%eax,%eax
  4015e9:	89 44 24 0c          	mov    %eax,0xc(%rsp)
  4015ed:	8b 44 24 14          	mov    0x14(%rsp),%eax
  4015f1:	69 c0 ce b2 00 00    	imul   $0xb2ce,%eax,%eax
  4015f7:	89 44 24 14          	mov    %eax,0x14(%rsp)
  4015fb:	8b 44 24 14          	mov    0x14(%rsp),%eax
  4015ff:	69 c0 a2 43 00 00    	imul   $0x43a2,%eax,%eax
  401605:	89 44 24 14          	mov    %eax,0x14(%rsp)
  401609:	8b 44 24 18          	mov    0x18(%rsp),%eax
  40160d:	69 c0 49 7e 00 00    	imul   $0x7e49,%eax,%eax
  401613:	89 44 24 18          	mov    %eax,0x18(%rsp)
  401617:	8b 44 24 1c          	mov    0x1c(%rsp),%eax
  40161b:	69 c0 54 28 00 00    	imul   $0x2854,%eax,%eax
  401621:	89 44 24 1c          	mov    %eax,0x1c(%rsp)
  401625:	8b 44 24 10          	mov    0x10(%rsp),%eax
  401629:	69 c0 6e 79 00 00    	imul   $0x796e,%eax,%eax
  40162f:	89 44 24 10          	mov    %eax,0x10(%rsp)
  401633:	8b 44 24 18          	mov    0x18(%rsp),%eax
  401637:	69 c0 41 af 00 00    	imul   $0xaf41,%eax,%eax
  40163d:	89 44 24 18          	mov    %eax,0x18(%rsp)
  401641:	8b 44 24 04          	mov    0x4(%rsp),%eax
  401645:	69 c0 6c 0c 00 00    	imul   $0xc6c,%eax,%eax
  40164b:	89 44 24 04          	mov    %eax,0x4(%rsp)
  40164f:	8b 44 24 18          	mov    0x18(%rsp),%eax
  401653:	69 c0 85 12 00 00    	imul   $0x1285,%eax,%eax
  401659:	89 44 24 18          	mov    %eax,0x18(%rsp)
  40165d:	8b 44 24 20          	mov    0x20(%rsp),%eax
  401661:	69 c0 64 b1 00 00    	imul   $0xb164,%eax,%eax
  401667:	89 44 24 20          	mov    %eax,0x20(%rsp)
  40166b:	8b 44 24 04          	mov    0x4(%rsp),%eax
  40166f:	69 c0 af 2b 00 00    	imul   $0x2baf,%eax,%eax
  401675:	89 44 24 04          	mov    %eax,0x4(%rsp)
  401679:	8b 44 24 0c          	mov    0xc(%rsp),%eax
  40167d:	69 c0 88 51 00 00    	imul   $0x5188,%eax,%eax
  401683:	89 44 24 0c          	mov    %eax,0xc(%rsp)
  401687:	8b 44 24 10          	mov    0x10(%rsp),%eax
  40168b:	69 c0 af a1 00 00    	imul   $0xa1af,%eax,%eax
  401691:	89 44 24 10          	mov    %eax,0x10(%rsp)
  401695:	8b 44 24 04          	mov    0x4(%rsp),%eax
  401699:	69 c0 6b da 00 00    	imul   $0xda6b,%eax,%eax
  40169f:	89 44 24 04          	mov    %eax,0x4(%rsp)
  4016a3:	8b 44 24 1c          	mov    0x1c(%rsp),%eax
  4016a7:	69 c0 af 17 00 00    	imul   $0x17af,%eax,%eax
  4016ad:	89 44 24 1c          	mov    %eax,0x1c(%rsp)
  4016b1:	8b 04 24             	mov    (%rsp),%eax
  4016b4:	69 c0 bc e8 00 00    	imul   $0xe8bc,%eax,%eax
  4016ba:	89 04 24             	mov    %eax,(%rsp)
  4016bd:	8b 44 24 08          	mov    0x8(%rsp),%eax
  4016c1:	69 c0 78 76 00 00    	imul   $0x7678,%eax,%eax
  4016c7:	89 44 24 08          	mov    %eax,0x8(%rsp)
  4016cb:	8b 04 24             	mov    (%rsp),%eax
  4016ce:	69 c0 67 9f 00 00    	imul   $0x9f67,%eax,%eax
  4016d4:	89 04 24             	mov    %eax,(%rsp)
  4016d7:	8b 44 24 1c          	mov    0x1c(%rsp),%eax
  4016db:	69 c0 48 ba 00 00    	imul   $0xba48,%eax,%eax
  4016e1:	89 44 24 1c          	mov    %eax,0x1c(%rsp)
  4016e5:	8b 04 24             	mov    (%rsp),%eax
  4016e8:	69 c0 3e 57 00 00    	imul   $0x573e,%eax,%eax
  4016ee:	89 04 24             	mov    %eax,(%rsp)
  4016f1:	8b 44 24 20          	mov    0x20(%rsp),%eax
  4016f5:	69 c0 72 be 00 00    	imul   $0xbe72,%eax,%eax
  4016fb:	89 44 24 20          	mov    %eax,0x20(%rsp)
  4016ff:	8b 44 24 14          	mov    0x14(%rsp),%eax
  401703:	69 c0 10 ce 00 00    	imul   $0xce10,%eax,%eax
  401709:	89 44 24 14          	mov    %eax,0x14(%rsp)
  40170d:	8b 44 24 10          	mov    0x10(%rsp),%eax
  401711:	69 c0 ba 35 00 00    	imul   $0x35ba,%eax,%eax
  401717:	89 44 24 10          	mov    %eax,0x10(%rsp)
  40171b:	8b 44 24 0c          	mov    0xc(%rsp),%eax
  40171f:	69 c0 9c 84 00 00    	imul   $0x849c,%eax,%eax
  401725:	89 44 24 0c          	mov    %eax,0xc(%rsp)
  401729:	8b 44 24 18          	mov    0x18(%rsp),%eax
  40172d:	69 c0 70 bf 00 00    	imul   $0xbf70,%eax,%eax
  401733:	89 44 24 18          	mov    %eax,0x18(%rsp)
  401737:	8b 44 24 1c          	mov    0x1c(%rsp),%eax
  40173b:	69 c0 49 73 00 00    	imul   $0x7349,%eax,%eax
  401741:	89 44 24 1c          	mov    %eax,0x1c(%rsp)
  401745:	8b 44 24 08          	mov    0x8(%rsp),%eax
  401749:	69 c0 8a db 00 00    	imul   $0xdb8a,%eax,%eax
  40174f:	89 44 24 08          	mov    %eax,0x8(%rsp)
  401753:	8b 44 24 24          	mov    0x24(%rsp),%eax
  401757:	69 c0 dc ff 00 00    	imul   $0xffdc,%eax,%eax
  40175d:	89 44 24 24          	mov    %eax,0x24(%rsp)
  401761:	8b 44 24 10          	mov    0x10(%rsp),%eax
  401765:	69 c0 3a 5b 00 00    	imul   $0x5b3a,%eax,%eax
  40176b:	89 44 24 10          	mov    %eax,0x10(%rsp)
  40176f:	8b 44 24 24          	mov    0x24(%rsp),%eax
  401773:	69 c0 96 19 00 00    	imul   $0x1996,%eax,%eax
  401779:	89 44 24 24          	mov    %eax,0x24(%rsp)
  40177d:	8b 44 24 20          	mov    0x20(%rsp),%eax
  401781:	69 c0 bd 23 00 00    	imul   $0x23bd,%eax,%eax
  401787:	89 44 24 20          	mov    %eax,0x20(%rsp)
  40178b:	8b 44 24 1c          	mov    0x1c(%rsp),%eax
  40178f:	69 c0 9c 46 00 00    	imul   $0x469c,%eax,%eax
  401795:	89 44 24 1c          	mov    %eax,0x1c(%rsp)
  401799:	8b 44 24 24          	mov    0x24(%rsp),%eax
  40179d:	69 c0 dd 9d 00 00    	imul   $0x9ddd,%eax,%eax
  4017a3:	89 44 24 24          	mov    %eax,0x24(%rsp)
  4017a7:	8b 44 24 0c          	mov    0xc(%rsp),%eax
  4017ab:	69 c0 4f 54 00 00    	imul   $0x544f,%eax,%eax
  4017b1:	89 44 24 0c          	mov    %eax,0xc(%rsp)
  4017b5:	8b 44 24 1c          	mov    0x1c(%rsp),%eax
  4017b9:	69 c0 b4 03 00 00    	imul   $0x3b4,%eax,%eax
  4017bf:	89 44 24 1c          	mov    %eax,0x1c(%rsp)
  4017c3:	8b 44 24 14          	mov    0x14(%rsp),%eax
  4017c7:	69 c0 c1 3a 00 00    	imul   $0x3ac1,%eax,%eax
  4017cd:	89 44 24 14          	mov    %eax,0x14(%rsp)
  4017d1:	8b 44 24 08          	mov    0x8(%rsp),%eax
  4017d5:	69 c0 39 7c 00 00    	imul   $0x7c39,%eax,%eax
  4017db:	89 44 24 08          	mov    %eax,0x8(%rsp)
  4017df:	8b 44 24 08          	mov    0x8(%rsp),%eax
  4017e3:	69 c0 da 2f 00 00    	imul   $0x2fda,%eax,%eax
  4017e9:	89 44 24 08          	mov    %eax,0x8(%rsp)
  4017ed:	8b 44 24 24          	mov    0x24(%rsp),%eax
  4017f1:	69 c0 4e e3 00 00    	imul   $0xe34e,%eax,%eax
  4017f7:	89 44 24 24          	mov    %eax,0x24(%rsp)
  4017fb:	8b 44 24 04          	mov    0x4(%rsp),%eax
  4017ff:	69 c0 33 fa 00 00    	imul   $0xfa33,%eax,%eax
  401805:	89 44 24 04          	mov    %eax,0x4(%rsp)
  401809:	8b 44 24 04          	mov    0x4(%rsp),%eax
  40180d:	69 c0 77 ea 00 00    	imul   $0xea77,%eax,%eax
  401813:	89 44 24 04          	mov    %eax,0x4(%rsp)
  401817:	8b 44 24 0c          	mov    0xc(%rsp),%eax
  40181b:	69 c0 de 8d 00 00    	imul   $0x8dde,%eax,%eax
  401821:	89 44 24 0c          	mov    %eax,0xc(%rsp)
  401825:	8b 44 24 0c          	mov    0xc(%rsp),%eax
  401829:	69 c0 4f 32 00 00    	imul   $0x324f,%eax,%eax
  40182f:	89 44 24 0c          	mov    %eax,0xc(%rsp)
  401833:	8b 44 24 04          	mov    0x4(%rsp),%eax
  401837:	69 c0 3a 43 00 00    	imul   $0x433a,%eax,%eax
  40183d:	89 44 24 04          	mov    %eax,0x4(%rsp)
  401841:	ba 00 00 00 00       	mov    $0x0,%edx
  401846:	b8 00 00 00 00       	mov    $0x0,%eax
  40184b:	eb 0a                	jmp    401857 <scramble+0x4c8>
  40184d:	89 d1                	mov    %edx,%ecx
  40184f:	8b 0c 8c             	mov    (%rsp,%rcx,4),%ecx
  401852:	01 c8                	add    %ecx,%eax
  401854:	83 c2 01             	add    $0x1,%edx
  401857:	83 fa 09             	cmp    $0x9,%edx
  40185a:	76 f1                	jbe    40184d <scramble+0x4be>
  40185c:	48 8b 74 24 28       	mov    0x28(%rsp),%rsi
  401861:	64 48 33 34 25 28 00 	xor    %fs:0x28,%rsi
  401868:	00 00 
  40186a:	74 05                	je     401871 <scramble+0x4e2>
  40186c:	e8 7f f4 ff ff       	callq  400cf0 <__stack_chk_fail@plt>
  401871:	48 83 c4 38          	add    $0x38,%rsp
  401875:	c3                   	retq   

0000000000401876 <getbuf>:
  401876:	48 83 ec 18          	sub    $0x18,%rsp
  40187a:	48 89 e7             	mov    %rsp,%rdi
  40187d:	e8 9b 03 00 00       	callq  401c1d <Gets>
  401882:	b8 01 00 00 00       	mov    $0x1,%eax
  401887:	48 83 c4 18          	add    $0x18,%rsp
  40188b:	c3                   	retq   

000000000040188c <touch1>:
  40188c:	48 83 ec 08          	sub    $0x8,%rsp
  401890:	c7 05 82 3c 20 00 01 	movl   $0x1,0x203c82(%rip)        # 60551c <vlevel>
  401897:	00 00 00 
  40189a:	bf e5 32 40 00       	mov    $0x4032e5,%edi
  40189f:	e8 2c f4 ff ff       	callq  400cd0 <puts@plt>
  4018a4:	bf 01 00 00 00       	mov    $0x1,%edi
  4018a9:	e8 b4 05 00 00       	callq  401e62 <validate>
  4018ae:	bf 00 00 00 00       	mov    $0x0,%edi
  4018b3:	e8 98 f5 ff ff       	callq  400e50 <exit@plt>

00000000004018b8 <touch2>:
  4018b8:	48 83 ec 08          	sub    $0x8,%rsp
  4018bc:	89 fa                	mov    %edi,%edx
  4018be:	c7 05 54 3c 20 00 02 	movl   $0x2,0x203c54(%rip)        # 60551c <vlevel>
  4018c5:	00 00 00 
  4018c8:	39 3d 56 3c 20 00    	cmp    %edi,0x203c56(%rip)        # 605524 <cookie>
  4018ce:	75 20                	jne    4018f0 <touch2+0x38>
  4018d0:	be 08 33 40 00       	mov    $0x403308,%esi
  4018d5:	bf 01 00 00 00       	mov    $0x1,%edi
  4018da:	b8 00 00 00 00       	mov    $0x0,%eax
  4018df:	e8 1c f5 ff ff       	callq  400e00 <__printf_chk@plt>
  4018e4:	bf 02 00 00 00       	mov    $0x2,%edi
  4018e9:	e8 74 05 00 00       	callq  401e62 <validate>
  4018ee:	eb 1e                	jmp    40190e <touch2+0x56>
  4018f0:	be 30 33 40 00       	mov    $0x403330,%esi
  4018f5:	bf 01 00 00 00       	mov    $0x1,%edi
  4018fa:	b8 00 00 00 00       	mov    $0x0,%eax
  4018ff:	e8 fc f4 ff ff       	callq  400e00 <__printf_chk@plt>
  401904:	bf 02 00 00 00       	mov    $0x2,%edi
  401909:	e8 16 06 00 00       	callq  401f24 <fail>
  40190e:	bf 00 00 00 00       	mov    $0x0,%edi
  401913:	e8 38 f5 ff ff       	callq  400e50 <exit@plt>

0000000000401918 <hexmatch>:
  401918:	41 54                	push   %r12
  40191a:	55                   	push   %rbp
  40191b:	53                   	push   %rbx
  40191c:	48 83 c4 80          	add    $0xffffffffffffff80,%rsp
  401920:	89 fd                	mov    %edi,%ebp
  401922:	48 89 f3             	mov    %rsi,%rbx
  401925:	64 48 8b 04 25 28 00 	mov    %fs:0x28,%rax
  40192c:	00 00 
  40192e:	48 89 44 24 78       	mov    %rax,0x78(%rsp)
  401933:	31 c0                	xor    %eax,%eax
  401935:	e8 86 f4 ff ff       	callq  400dc0 <random@plt>
  40193a:	48 89 c1             	mov    %rax,%rcx
  40193d:	48 ba 0b d7 a3 70 3d 	movabs $0xa3d70a3d70a3d70b,%rdx
  401944:	0a d7 a3 
  401947:	48 f7 ea             	imul   %rdx
  40194a:	48 01 ca             	add    %rcx,%rdx
  40194d:	48 c1 fa 06          	sar    $0x6,%rdx
  401951:	48 89 c8             	mov    %rcx,%rax
  401954:	48 c1 f8 3f          	sar    $0x3f,%rax
  401958:	48 29 c2             	sub    %rax,%rdx
  40195b:	48 8d 04 92          	lea    (%rdx,%rdx,4),%rax
  40195f:	48 8d 14 80          	lea    (%rax,%rax,4),%rdx
  401963:	48 8d 04 95 00 00 00 	lea    0x0(,%rdx,4),%rax
  40196a:	00 
  40196b:	48 29 c1             	sub    %rax,%rcx
  40196e:	4c 8d 24 0c          	lea    (%rsp,%rcx,1),%r12
  401972:	41 89 e8             	mov    %ebp,%r8d
  401975:	b9 02 33 40 00       	mov    $0x403302,%ecx
  40197a:	48 c7 c2 ff ff ff ff 	mov    $0xffffffffffffffff,%rdx
  401981:	be 01 00 00 00       	mov    $0x1,%esi
  401986:	4c 89 e7             	mov    %r12,%rdi
  401989:	b8 00 00 00 00       	mov    $0x0,%eax
  40198e:	e8 ed f4 ff ff       	callq  400e80 <__sprintf_chk@plt>
  401993:	ba 09 00 00 00       	mov    $0x9,%edx
  401998:	4c 89 e6             	mov    %r12,%rsi
  40199b:	48 89 df             	mov    %rbx,%rdi
  40199e:	e8 0d f3 ff ff       	callq  400cb0 <strncmp@plt>
  4019a3:	85 c0                	test   %eax,%eax
  4019a5:	0f 94 c0             	sete   %al
  4019a8:	48 8b 5c 24 78       	mov    0x78(%rsp),%rbx
  4019ad:	64 48 33 1c 25 28 00 	xor    %fs:0x28,%rbx
  4019b4:	00 00 
  4019b6:	74 05                	je     4019bd <hexmatch+0xa5>
  4019b8:	e8 33 f3 ff ff       	callq  400cf0 <__stack_chk_fail@plt>
  4019bd:	0f b6 c0             	movzbl %al,%eax
  4019c0:	48 83 ec 80          	sub    $0xffffffffffffff80,%rsp
  4019c4:	5b                   	pop    %rbx
  4019c5:	5d                   	pop    %rbp
  4019c6:	41 5c                	pop    %r12
  4019c8:	c3                   	retq   

00000000004019c9 <touch3>:
  4019c9:	53                   	push   %rbx
  4019ca:	48 89 fb             	mov    %rdi,%rbx
  4019cd:	c7 05 45 3b 20 00 03 	movl   $0x3,0x203b45(%rip)        # 60551c <vlevel>
  4019d4:	00 00 00 
  4019d7:	48 89 fe             	mov    %rdi,%rsi
  4019da:	8b 3d 44 3b 20 00    	mov    0x203b44(%rip),%edi        # 605524 <cookie>
  4019e0:	e8 33 ff ff ff       	callq  401918 <hexmatch>
  4019e5:	85 c0                	test   %eax,%eax
  4019e7:	74 23                	je     401a0c <touch3+0x43>
  4019e9:	48 89 da             	mov    %rbx,%rdx
  4019ec:	be 58 33 40 00       	mov    $0x403358,%esi
  4019f1:	bf 01 00 00 00       	mov    $0x1,%edi
  4019f6:	b8 00 00 00 00       	mov    $0x0,%eax
  4019fb:	e8 00 f4 ff ff       	callq  400e00 <__printf_chk@plt>
  401a00:	bf 03 00 00 00       	mov    $0x3,%edi
  401a05:	e8 58 04 00 00       	callq  401e62 <validate>
  401a0a:	eb 21                	jmp    401a2d <touch3+0x64>
  401a0c:	48 89 da             	mov    %rbx,%rdx
  401a0f:	be 80 33 40 00       	mov    $0x403380,%esi
  401a14:	bf 01 00 00 00       	mov    $0x1,%edi
  401a19:	b8 00 00 00 00       	mov    $0x0,%eax
  401a1e:	e8 dd f3 ff ff       	callq  400e00 <__printf_chk@plt>
  401a23:	bf 03 00 00 00       	mov    $0x3,%edi
  401a28:	e8 f7 04 00 00       	callq  401f24 <fail>
  401a2d:	bf 00 00 00 00       	mov    $0x0,%edi
  401a32:	e8 19 f4 ff ff       	callq  400e50 <exit@plt>

0000000000401a37 <test>:
  401a37:	48 83 ec 08          	sub    $0x8,%rsp
  401a3b:	b8 00 00 00 00       	mov    $0x0,%eax
  401a40:	e8 31 fe ff ff       	callq  401876 <getbuf>
  401a45:	89 c2                	mov    %eax,%edx
  401a47:	be a8 33 40 00       	mov    $0x4033a8,%esi
  401a4c:	bf 01 00 00 00       	mov    $0x1,%edi
  401a51:	b8 00 00 00 00       	mov    $0x0,%eax
  401a56:	e8 a5 f3 ff ff       	callq  400e00 <__printf_chk@plt>
  401a5b:	48 83 c4 08          	add    $0x8,%rsp
  401a5f:	c3                   	retq   

0000000000401a60 <start_farm>:
  401a60:	b8 01 00 00 00       	mov    $0x1,%eax
  401a65:	c3                   	retq   

0000000000401a66 <getval_382>:
  401a66:	b8 48 89 c7 90       	mov    $0x90c78948,%eax
  401a6b:	c3                   	retq   

0000000000401a6c <setval_251>:
  401a6c:	c7 07 93 08 89 c7    	movl   $0xc7890893,(%rdi)
  401a72:	c3                   	retq   

0000000000401a73 <getval_138>:
  401a73:	b8 58 c3 dc ce       	mov    $0xcedcc358,%eax
  401a78:	c3                   	retq   

0000000000401a79 <setval_185>:
  401a79:	c7 07 58 91 90 90    	movl   $0x90909158,(%rdi)
  401a7f:	c3                   	retq   

0000000000401a80 <setval_358>:
  401a80:	c7 07 48 89 c7 91    	movl   $0x91c78948,(%rdi)
  401a86:	c3                   	retq   

0000000000401a87 <addval_207>:
  401a87:	8d 87 48 89 c7 90    	lea    -0x6f3876b8(%rdi),%eax
  401a8d:	c3                   	retq   

0000000000401a8e <getval_111>:
  401a8e:	b8 c2 06 58 c3       	mov    $0xc35806c2,%eax
  401a93:	c3                   	retq   

0000000000401a94 <getval_484>:
  401a94:	b8 78 90 c3 f1       	mov    $0xf1c39078,%eax
  401a99:	c3                   	retq   

0000000000401a9a <mid_farm>:
  401a9a:	b8 01 00 00 00       	mov    $0x1,%eax
  401a9f:	c3                   	retq   

0000000000401aa0 <add_xy>:
  401aa0:	48 8d 04 37          	lea    (%rdi,%rsi,1),%rax
  401aa4:	c3                   	retq   

0000000000401aa5 <addval_483>:
  401aa5:	8d 87 e2 8d ca c3    	lea    -0x3c35721e(%rdi),%eax
  401aab:	c3                   	retq   

0000000000401aac <getval_164>:
  401aac:	b8 0b 08 89 e0       	mov    $0xe089080b,%eax
  401ab1:	c3                   	retq   

0000000000401ab2 <addval_395>:
  401ab2:	8d 87 89 ca 28 d2    	lea    -0x2dd73577(%rdi),%eax
  401ab8:	c3                   	retq   

0000000000401ab9 <setval_141>:
  401ab9:	c7 07 89 c1 38 c0    	movl   $0xc038c189,(%rdi)
  401abf:	c3                   	retq   

0000000000401ac0 <addval_220>:
  401ac0:	8d 87 48 89 e0 90    	lea    -0x6f1f76b8(%rdi),%eax
  401ac6:	c3                   	retq   

0000000000401ac7 <addval_446>:
  401ac7:	8d 87 89 d6 48 db    	lea    -0x24b72977(%rdi),%eax
  401acd:	c3                   	retq   

0000000000401ace <getval_424>:
  401ace:	b8 89 d6 90 c7       	mov    $0xc790d689,%eax
  401ad3:	c3                   	retq   

0000000000401ad4 <getval_188>:
  401ad4:	b8 89 ca 18 db       	mov    $0xdb18ca89,%eax
  401ad9:	c3                   	retq   

0000000000401ada <getval_225>:
  401ada:	b8 8b d6 20 c9       	mov    $0xc920d68b,%eax
  401adf:	c3                   	retq   

0000000000401ae0 <setval_165>:
  401ae0:	c7 07 89 ca 90 c3    	movl   $0xc390ca89,(%rdi)
  401ae6:	c3                   	retq   

0000000000401ae7 <setval_417>:
  401ae7:	c7 07 08 89 e0 c3    	movl   $0xc3e08908,(%rdi)
  401aed:	c3                   	retq   

0000000000401aee <getval_203>:
  401aee:	b8 a9 d6 84 d2       	mov    $0xd284d6a9,%eax
  401af3:	c3                   	retq   

0000000000401af4 <addval_317>:
  401af4:	8d 87 89 c1 38 db    	lea    -0x24c73e77(%rdi),%eax
  401afa:	c3                   	retq   

0000000000401afb <getval_281>:
  401afb:	b8 c9 ca 90 90       	mov    $0x9090cac9,%eax
  401b00:	c3                   	retq   

0000000000401b01 <getval_343>:
  401b01:	b8 5c 89 d6 c2       	mov    $0xc2d6895c,%eax
  401b06:	c3                   	retq   

0000000000401b07 <setval_166>:
  401b07:	c7 07 89 d6 20 db    	movl   $0xdb20d689,(%rdi)
  401b0d:	c3                   	retq   

0000000000401b0e <setval_474>:
  401b0e:	c7 07 8b d6 08 d2    	movl   $0xd208d68b,(%rdi)
  401b14:	c3                   	retq   

0000000000401b15 <getval_414>:
  401b15:	b8 48 89 e0 94       	mov    $0x94e08948,%eax
  401b1a:	c3                   	retq   

0000000000401b1b <setval_162>:
  401b1b:	c7 07 89 c1 00 db    	movl   $0xdb00c189,(%rdi)
  401b21:	c3                   	retq   

0000000000401b22 <addval_445>:
  401b22:	8d 87 88 c1 84 c9    	lea    -0x367b3e78(%rdi),%eax
  401b28:	c3                   	retq   

0000000000401b29 <addval_472>:
  401b29:	8d 87 da 48 99 e0    	lea    -0x1f66b726(%rdi),%eax
  401b2f:	c3                   	retq   

0000000000401b30 <addval_154>:
  401b30:	8d 87 20 48 09 e0    	lea    -0x1ff6b7e0(%rdi),%eax
  401b36:	c3                   	retq   

0000000000401b37 <getval_279>:
  401b37:	b8 89 c1 28 c9       	mov    $0xc928c189,%eax
  401b3c:	c3                   	retq   

0000000000401b3d <getval_335>:
  401b3d:	b8 4c 89 ca c3       	mov    $0xc3ca894c,%eax
  401b42:	c3                   	retq   

0000000000401b43 <getval_180>:
  401b43:	b8 48 89 e0 c3       	mov    $0xc3e08948,%eax
  401b48:	c3                   	retq   

0000000000401b49 <getval_462>:
  401b49:	b8 89 ca a4 d2       	mov    $0xd2a4ca89,%eax
  401b4e:	c3                   	retq   

0000000000401b4f <addval_314>:
  401b4f:	8d 87 89 c1 c4 c0    	lea    -0x3f3b3e77(%rdi),%eax
  401b55:	c3                   	retq   

0000000000401b56 <getval_235>:
  401b56:	b8 89 c1 28 c9       	mov    $0xc928c189,%eax
  401b5b:	c3                   	retq   

0000000000401b5c <getval_463>:
  401b5c:	b8 89 d6 38 c0       	mov    $0xc038d689,%eax
  401b61:	c3                   	retq   

0000000000401b62 <addval_321>:
  401b62:	8d 87 88 ca 84 d2    	lea    -0x2d7b3578(%rdi),%eax
  401b68:	c3                   	retq   

0000000000401b69 <setval_498>:
  401b69:	c7 07 c9 c1 08 c9    	movl   $0xc908c1c9,(%rdi)
  401b6f:	c3                   	retq   

0000000000401b70 <setval_122>:
  401b70:	c7 07 58 48 8b e0    	movl   $0xe08b4858,(%rdi)
  401b76:	c3                   	retq   

0000000000401b77 <end_farm>:
  401b77:	b8 01 00 00 00       	mov    $0x1,%eax
  401b7c:	c3                   	retq   

0000000000401b7d <save_char>:
  401b7d:	8b 05 c1 45 20 00    	mov    0x2045c1(%rip),%eax        # 606144 <gets_cnt>
  401b83:	3d ff 03 00 00       	cmp    $0x3ff,%eax
  401b88:	7f 49                	jg     401bd3 <save_char+0x56>
  401b8a:	8d 14 40             	lea    (%rax,%rax,2),%edx
  401b8d:	89 f9                	mov    %edi,%ecx
  401b8f:	c0 e9 04             	shr    $0x4,%cl
  401b92:	83 e1 0f             	and    $0xf,%ecx
  401b95:	0f b6 b1 d0 36 40 00 	movzbl 0x4036d0(%rcx),%esi
  401b9c:	48 63 ca             	movslq %edx,%rcx
  401b9f:	40 88 b1 40 55 60 00 	mov    %sil,0x605540(%rcx)
  401ba6:	8d 4a 01             	lea    0x1(%rdx),%ecx
  401ba9:	83 e7 0f             	and    $0xf,%edi
  401bac:	0f b6 b7 d0 36 40 00 	movzbl 0x4036d0(%rdi),%esi
  401bb3:	48 63 c9             	movslq %ecx,%rcx
  401bb6:	40 88 b1 40 55 60 00 	mov    %sil,0x605540(%rcx)
  401bbd:	83 c2 02             	add    $0x2,%edx
  401bc0:	48 63 d2             	movslq %edx,%rdx
  401bc3:	c6 82 40 55 60 00 20 	movb   $0x20,0x605540(%rdx)
  401bca:	83 c0 01             	add    $0x1,%eax
  401bcd:	89 05 71 45 20 00    	mov    %eax,0x204571(%rip)        # 606144 <gets_cnt>
  401bd3:	f3 c3                	repz retq 

0000000000401bd5 <save_term>:
  401bd5:	8b 05 69 45 20 00    	mov    0x204569(%rip),%eax        # 606144 <gets_cnt>
  401bdb:	8d 04 40             	lea    (%rax,%rax,2),%eax
  401bde:	48 98                	cltq   
  401be0:	c6 80 40 55 60 00 00 	movb   $0x0,0x605540(%rax)
  401be7:	c3                   	retq   

0000000000401be8 <check_fail>:
  401be8:	48 83 ec 08          	sub    $0x8,%rsp
  401bec:	0f be 15 55 45 20 00 	movsbl 0x204555(%rip),%edx        # 606148 <target_prefix>
  401bf3:	41 b8 40 55 60 00    	mov    $0x605540,%r8d
  401bf9:	8b 0d 19 39 20 00    	mov    0x203919(%rip),%ecx        # 605518 <check_level>
  401bff:	be cb 33 40 00       	mov    $0x4033cb,%esi
  401c04:	bf 01 00 00 00       	mov    $0x1,%edi
  401c09:	b8 00 00 00 00       	mov    $0x0,%eax
  401c0e:	e8 ed f1 ff ff       	callq  400e00 <__printf_chk@plt>
  401c13:	bf 01 00 00 00       	mov    $0x1,%edi
  401c18:	e8 33 f2 ff ff       	callq  400e50 <exit@plt>

0000000000401c1d <Gets>:
  401c1d:	41 54                	push   %r12
  401c1f:	55                   	push   %rbp
  401c20:	53                   	push   %rbx
  401c21:	49 89 fc             	mov    %rdi,%r12
  401c24:	c7 05 16 45 20 00 00 	movl   $0x0,0x204516(%rip)        # 606144 <gets_cnt>
  401c2b:	00 00 00 
  401c2e:	48 89 fb             	mov    %rdi,%rbx
  401c31:	eb 11                	jmp    401c44 <Gets+0x27>
  401c33:	48 8d 6b 01          	lea    0x1(%rbx),%rbp
  401c37:	88 03                	mov    %al,(%rbx)
  401c39:	0f b6 f8             	movzbl %al,%edi
  401c3c:	e8 3c ff ff ff       	callq  401b7d <save_char>
  401c41:	48 89 eb             	mov    %rbp,%rbx
  401c44:	48 8b 3d c5 38 20 00 	mov    0x2038c5(%rip),%rdi        # 605510 <infile>
  401c4b:	e8 80 f1 ff ff       	callq  400dd0 <_IO_getc@plt>
  401c50:	83 f8 ff             	cmp    $0xffffffff,%eax
  401c53:	74 05                	je     401c5a <Gets+0x3d>
  401c55:	83 f8 0a             	cmp    $0xa,%eax
  401c58:	75 d9                	jne    401c33 <Gets+0x16>
  401c5a:	c6 03 00             	movb   $0x0,(%rbx)
  401c5d:	b8 00 00 00 00       	mov    $0x0,%eax
  401c62:	e8 6e ff ff ff       	callq  401bd5 <save_term>
  401c67:	4c 89 e0             	mov    %r12,%rax
  401c6a:	5b                   	pop    %rbx
  401c6b:	5d                   	pop    %rbp
  401c6c:	41 5c                	pop    %r12
  401c6e:	c3                   	retq   

0000000000401c6f <notify_server>:
  401c6f:	53                   	push   %rbx
  401c70:	48 81 ec 10 40 00 00 	sub    $0x4010,%rsp
  401c77:	64 48 8b 04 25 28 00 	mov    %fs:0x28,%rax
  401c7e:	00 00 
  401c80:	48 89 84 24 08 40 00 	mov    %rax,0x4008(%rsp)
  401c87:	00 
  401c88:	31 c0                	xor    %eax,%eax
  401c8a:	83 3d 97 38 20 00 00 	cmpl   $0x0,0x203897(%rip)        # 605528 <is_checker>
  401c91:	0f 85 aa 01 00 00    	jne    401e41 <notify_server+0x1d2>
  401c97:	89 fb                	mov    %edi,%ebx
  401c99:	8b 05 a5 44 20 00    	mov    0x2044a5(%rip),%eax        # 606144 <gets_cnt>
  401c9f:	83 c0 64             	add    $0x64,%eax
  401ca2:	3d 00 20 00 00       	cmp    $0x2000,%eax
  401ca7:	7e 1e                	jle    401cc7 <notify_server+0x58>
  401ca9:	be 00 35 40 00       	mov    $0x403500,%esi
  401cae:	bf 01 00 00 00       	mov    $0x1,%edi
  401cb3:	b8 00 00 00 00       	mov    $0x0,%eax
  401cb8:	e8 43 f1 ff ff       	callq  400e00 <__printf_chk@plt>
  401cbd:	bf 01 00 00 00       	mov    $0x1,%edi
  401cc2:	e8 89 f1 ff ff       	callq  400e50 <exit@plt>
  401cc7:	0f be 05 7a 44 20 00 	movsbl 0x20447a(%rip),%eax        # 606148 <target_prefix>
  401cce:	83 3d d3 37 20 00 00 	cmpl   $0x0,0x2037d3(%rip)        # 6054a8 <notify>
  401cd5:	74 08                	je     401cdf <notify_server+0x70>
  401cd7:	8b 15 43 38 20 00    	mov    0x203843(%rip),%edx        # 605520 <authkey>
  401cdd:	eb 05                	jmp    401ce4 <notify_server+0x75>
  401cdf:	ba ff ff ff ff       	mov    $0xffffffff,%edx
  401ce4:	85 db                	test   %ebx,%ebx
  401ce6:	74 08                	je     401cf0 <notify_server+0x81>
  401ce8:	41 b9 e1 33 40 00    	mov    $0x4033e1,%r9d
  401cee:	eb 06                	jmp    401cf6 <notify_server+0x87>
  401cf0:	41 b9 e6 33 40 00    	mov    $0x4033e6,%r9d
  401cf6:	68 40 55 60 00       	pushq  $0x605540
  401cfb:	56                   	push   %rsi
  401cfc:	50                   	push   %rax
  401cfd:	52                   	push   %rdx
  401cfe:	44 8b 05 63 34 20 00 	mov    0x203463(%rip),%r8d        # 605168 <target_id>
  401d05:	b9 eb 33 40 00       	mov    $0x4033eb,%ecx
  401d0a:	ba 00 20 00 00       	mov    $0x2000,%edx
  401d0f:	be 01 00 00 00       	mov    $0x1,%esi
  401d14:	48 8d 7c 24 20       	lea    0x20(%rsp),%rdi
  401d19:	b8 00 00 00 00       	mov    $0x0,%eax
  401d1e:	e8 5d f1 ff ff       	callq  400e80 <__sprintf_chk@plt>
  401d23:	48 83 c4 20          	add    $0x20,%rsp
  401d27:	83 3d 7a 37 20 00 00 	cmpl   $0x0,0x20377a(%rip)        # 6054a8 <notify>
  401d2e:	0f 84 81 00 00 00    	je     401db5 <notify_server+0x146>
  401d34:	85 db                	test   %ebx,%ebx
  401d36:	74 6e                	je     401da6 <notify_server+0x137>
  401d38:	4c 8d 8c 24 00 20 00 	lea    0x2000(%rsp),%r9
  401d3f:	00 
  401d40:	41 b8 00 00 00 00    	mov    $0x0,%r8d
  401d46:	48 89 e1             	mov    %rsp,%rcx
  401d49:	48 8b 15 20 34 20 00 	mov    0x203420(%rip),%rdx        # 605170 <lab>
  401d50:	48 8b 35 21 34 20 00 	mov    0x203421(%rip),%rsi        # 605178 <course>
  401d57:	48 8b 3d 02 34 20 00 	mov    0x203402(%rip),%rdi        # 605160 <user_id>
  401d5e:	e8 ef 10 00 00       	callq  402e52 <driver_post>
  401d63:	85 c0                	test   %eax,%eax
  401d65:	79 26                	jns    401d8d <notify_server+0x11e>
  401d67:	48 8d 94 24 00 20 00 	lea    0x2000(%rsp),%rdx
  401d6e:	00 
  401d6f:	be 07 34 40 00       	mov    $0x403407,%esi
  401d74:	bf 01 00 00 00       	mov    $0x1,%edi
  401d79:	b8 00 00 00 00       	mov    $0x0,%eax
  401d7e:	e8 7d f0 ff ff       	callq  400e00 <__printf_chk@plt>
  401d83:	bf 01 00 00 00       	mov    $0x1,%edi
  401d88:	e8 c3 f0 ff ff       	callq  400e50 <exit@plt>
  401d8d:	bf 30 35 40 00       	mov    $0x403530,%edi
  401d92:	e8 39 ef ff ff       	callq  400cd0 <puts@plt>
  401d97:	bf 13 34 40 00       	mov    $0x403413,%edi
  401d9c:	e8 2f ef ff ff       	callq  400cd0 <puts@plt>
  401da1:	e9 9b 00 00 00       	jmpq   401e41 <notify_server+0x1d2>
  401da6:	bf 1d 34 40 00       	mov    $0x40341d,%edi
  401dab:	e8 20 ef ff ff       	callq  400cd0 <puts@plt>
  401db0:	e9 8c 00 00 00       	jmpq   401e41 <notify_server+0x1d2>
  401db5:	85 db                	test   %ebx,%ebx
  401db7:	74 07                	je     401dc0 <notify_server+0x151>
  401db9:	ba e1 33 40 00       	mov    $0x4033e1,%edx
  401dbe:	eb 05                	jmp    401dc5 <notify_server+0x156>
  401dc0:	ba e6 33 40 00       	mov    $0x4033e6,%edx
  401dc5:	be 68 35 40 00       	mov    $0x403568,%esi
  401dca:	bf 01 00 00 00       	mov    $0x1,%edi
  401dcf:	b8 00 00 00 00       	mov    $0x0,%eax
  401dd4:	e8 27 f0 ff ff       	callq  400e00 <__printf_chk@plt>
  401dd9:	48 8b 15 80 33 20 00 	mov    0x203380(%rip),%rdx        # 605160 <user_id>
  401de0:	be 24 34 40 00       	mov    $0x403424,%esi
  401de5:	bf 01 00 00 00       	mov    $0x1,%edi
  401dea:	b8 00 00 00 00       	mov    $0x0,%eax
  401def:	e8 0c f0 ff ff       	callq  400e00 <__printf_chk@plt>
  401df4:	48 8b 15 7d 33 20 00 	mov    0x20337d(%rip),%rdx        # 605178 <course>
  401dfb:	be 31 34 40 00       	mov    $0x403431,%esi
  401e00:	bf 01 00 00 00       	mov    $0x1,%edi
  401e05:	b8 00 00 00 00       	mov    $0x0,%eax
  401e0a:	e8 f1 ef ff ff       	callq  400e00 <__printf_chk@plt>
  401e0f:	48 8b 15 5a 33 20 00 	mov    0x20335a(%rip),%rdx        # 605170 <lab>
  401e16:	be 3d 34 40 00       	mov    $0x40343d,%esi
  401e1b:	bf 01 00 00 00       	mov    $0x1,%edi
  401e20:	b8 00 00 00 00       	mov    $0x0,%eax
  401e25:	e8 d6 ef ff ff       	callq  400e00 <__printf_chk@plt>
  401e2a:	48 89 e2             	mov    %rsp,%rdx
  401e2d:	be 46 34 40 00       	mov    $0x403446,%esi
  401e32:	bf 01 00 00 00       	mov    $0x1,%edi
  401e37:	b8 00 00 00 00       	mov    $0x0,%eax
  401e3c:	e8 bf ef ff ff       	callq  400e00 <__printf_chk@plt>
  401e41:	48 8b 84 24 08 40 00 	mov    0x4008(%rsp),%rax
  401e48:	00 
  401e49:	64 48 33 04 25 28 00 	xor    %fs:0x28,%rax
  401e50:	00 00 
  401e52:	74 05                	je     401e59 <notify_server+0x1ea>
  401e54:	e8 97 ee ff ff       	callq  400cf0 <__stack_chk_fail@plt>
  401e59:	48 81 c4 10 40 00 00 	add    $0x4010,%rsp
  401e60:	5b                   	pop    %rbx
  401e61:	c3                   	retq   

0000000000401e62 <validate>:
  401e62:	53                   	push   %rbx
  401e63:	89 fb                	mov    %edi,%ebx
  401e65:	83 3d bc 36 20 00 00 	cmpl   $0x0,0x2036bc(%rip)        # 605528 <is_checker>
  401e6c:	74 6b                	je     401ed9 <validate+0x77>
  401e6e:	39 3d a8 36 20 00    	cmp    %edi,0x2036a8(%rip)        # 60551c <vlevel>
  401e74:	74 14                	je     401e8a <validate+0x28>
  401e76:	bf 52 34 40 00       	mov    $0x403452,%edi
  401e7b:	e8 50 ee ff ff       	callq  400cd0 <puts@plt>
  401e80:	b8 00 00 00 00       	mov    $0x0,%eax
  401e85:	e8 5e fd ff ff       	callq  401be8 <check_fail>
  401e8a:	8b 15 88 36 20 00    	mov    0x203688(%rip),%edx        # 605518 <check_level>
  401e90:	39 d7                	cmp    %edx,%edi
  401e92:	74 20                	je     401eb4 <validate+0x52>
  401e94:	89 f9                	mov    %edi,%ecx
  401e96:	be 90 35 40 00       	mov    $0x403590,%esi
  401e9b:	bf 01 00 00 00       	mov    $0x1,%edi
  401ea0:	b8 00 00 00 00       	mov    $0x0,%eax
  401ea5:	e8 56 ef ff ff       	callq  400e00 <__printf_chk@plt>
  401eaa:	b8 00 00 00 00       	mov    $0x0,%eax
  401eaf:	e8 34 fd ff ff       	callq  401be8 <check_fail>
  401eb4:	0f be 15 8d 42 20 00 	movsbl 0x20428d(%rip),%edx        # 606148 <target_prefix>
  401ebb:	41 b8 40 55 60 00    	mov    $0x605540,%r8d
  401ec1:	89 f9                	mov    %edi,%ecx
  401ec3:	be 70 34 40 00       	mov    $0x403470,%esi
  401ec8:	bf 01 00 00 00       	mov    $0x1,%edi
  401ecd:	b8 00 00 00 00       	mov    $0x0,%eax
  401ed2:	e8 29 ef ff ff       	callq  400e00 <__printf_chk@plt>
  401ed7:	eb 49                	jmp    401f22 <validate+0xc0>
  401ed9:	3b 3d 3d 36 20 00    	cmp    0x20363d(%rip),%edi        # 60551c <vlevel>
  401edf:	74 18                	je     401ef9 <validate+0x97>
  401ee1:	bf 52 34 40 00       	mov    $0x403452,%edi
  401ee6:	e8 e5 ed ff ff       	callq  400cd0 <puts@plt>
  401eeb:	89 de                	mov    %ebx,%esi
  401eed:	bf 00 00 00 00       	mov    $0x0,%edi
  401ef2:	e8 78 fd ff ff       	callq  401c6f <notify_server>
  401ef7:	eb 29                	jmp    401f22 <validate+0xc0>
  401ef9:	0f be 0d 48 42 20 00 	movsbl 0x204248(%rip),%ecx        # 606148 <target_prefix>
  401f00:	89 fa                	mov    %edi,%edx
  401f02:	be b8 35 40 00       	mov    $0x4035b8,%esi
  401f07:	bf 01 00 00 00       	mov    $0x1,%edi
  401f0c:	b8 00 00 00 00       	mov    $0x0,%eax
  401f11:	e8 ea ee ff ff       	callq  400e00 <__printf_chk@plt>
  401f16:	89 de                	mov    %ebx,%esi
  401f18:	bf 01 00 00 00       	mov    $0x1,%edi
  401f1d:	e8 4d fd ff ff       	callq  401c6f <notify_server>
  401f22:	5b                   	pop    %rbx
  401f23:	c3                   	retq   

0000000000401f24 <fail>:
  401f24:	48 83 ec 08          	sub    $0x8,%rsp
  401f28:	83 3d f9 35 20 00 00 	cmpl   $0x0,0x2035f9(%rip)        # 605528 <is_checker>
  401f2f:	74 0a                	je     401f3b <fail+0x17>
  401f31:	b8 00 00 00 00       	mov    $0x0,%eax
  401f36:	e8 ad fc ff ff       	callq  401be8 <check_fail>
  401f3b:	89 fe                	mov    %edi,%esi
  401f3d:	bf 00 00 00 00       	mov    $0x0,%edi
  401f42:	e8 28 fd ff ff       	callq  401c6f <notify_server>
  401f47:	48 83 c4 08          	add    $0x8,%rsp
  401f4b:	c3                   	retq   

0000000000401f4c <bushandler>:
  401f4c:	48 83 ec 08          	sub    $0x8,%rsp
  401f50:	83 3d d1 35 20 00 00 	cmpl   $0x0,0x2035d1(%rip)        # 605528 <is_checker>
  401f57:	74 14                	je     401f6d <bushandler+0x21>
  401f59:	bf 85 34 40 00       	mov    $0x403485,%edi
  401f5e:	e8 6d ed ff ff       	callq  400cd0 <puts@plt>
  401f63:	b8 00 00 00 00       	mov    $0x0,%eax
  401f68:	e8 7b fc ff ff       	callq  401be8 <check_fail>
  401f6d:	bf f0 35 40 00       	mov    $0x4035f0,%edi
  401f72:	e8 59 ed ff ff       	callq  400cd0 <puts@plt>
  401f77:	bf 8f 34 40 00       	mov    $0x40348f,%edi
  401f7c:	e8 4f ed ff ff       	callq  400cd0 <puts@plt>
  401f81:	be 00 00 00 00       	mov    $0x0,%esi
  401f86:	bf 00 00 00 00       	mov    $0x0,%edi
  401f8b:	e8 df fc ff ff       	callq  401c6f <notify_server>
  401f90:	bf 01 00 00 00       	mov    $0x1,%edi
  401f95:	e8 b6 ee ff ff       	callq  400e50 <exit@plt>

0000000000401f9a <seghandler>:
  401f9a:	48 83 ec 08          	sub    $0x8,%rsp
  401f9e:	83 3d 83 35 20 00 00 	cmpl   $0x0,0x203583(%rip)        # 605528 <is_checker>
  401fa5:	74 14                	je     401fbb <seghandler+0x21>
  401fa7:	bf a5 34 40 00       	mov    $0x4034a5,%edi
  401fac:	e8 1f ed ff ff       	callq  400cd0 <puts@plt>
  401fb1:	b8 00 00 00 00       	mov    $0x0,%eax
  401fb6:	e8 2d fc ff ff       	callq  401be8 <check_fail>
  401fbb:	bf 10 36 40 00       	mov    $0x403610,%edi
  401fc0:	e8 0b ed ff ff       	callq  400cd0 <puts@plt>
  401fc5:	bf 8f 34 40 00       	mov    $0x40348f,%edi
  401fca:	e8 01 ed ff ff       	callq  400cd0 <puts@plt>
  401fcf:	be 00 00 00 00       	mov    $0x0,%esi
  401fd4:	bf 00 00 00 00       	mov    $0x0,%edi
  401fd9:	e8 91 fc ff ff       	callq  401c6f <notify_server>
  401fde:	bf 01 00 00 00       	mov    $0x1,%edi
  401fe3:	e8 68 ee ff ff       	callq  400e50 <exit@plt>

0000000000401fe8 <illegalhandler>:
  401fe8:	48 83 ec 08          	sub    $0x8,%rsp
  401fec:	83 3d 35 35 20 00 00 	cmpl   $0x0,0x203535(%rip)        # 605528 <is_checker>
  401ff3:	74 14                	je     402009 <illegalhandler+0x21>
  401ff5:	bf b8 34 40 00       	mov    $0x4034b8,%edi
  401ffa:	e8 d1 ec ff ff       	callq  400cd0 <puts@plt>
  401fff:	b8 00 00 00 00       	mov    $0x0,%eax
  402004:	e8 df fb ff ff       	callq  401be8 <check_fail>
  402009:	bf 38 36 40 00       	mov    $0x403638,%edi
  40200e:	e8 bd ec ff ff       	callq  400cd0 <puts@plt>
  402013:	bf 8f 34 40 00       	mov    $0x40348f,%edi
  402018:	e8 b3 ec ff ff       	callq  400cd0 <puts@plt>
  40201d:	be 00 00 00 00       	mov    $0x0,%esi
  402022:	bf 00 00 00 00       	mov    $0x0,%edi
  402027:	e8 43 fc ff ff       	callq  401c6f <notify_server>
  40202c:	bf 01 00 00 00       	mov    $0x1,%edi
  402031:	e8 1a ee ff ff       	callq  400e50 <exit@plt>

0000000000402036 <sigalrmhandler>:
  402036:	48 83 ec 08          	sub    $0x8,%rsp
  40203a:	83 3d e7 34 20 00 00 	cmpl   $0x0,0x2034e7(%rip)        # 605528 <is_checker>
  402041:	74 14                	je     402057 <sigalrmhandler+0x21>
  402043:	bf cc 34 40 00       	mov    $0x4034cc,%edi
  402048:	e8 83 ec ff ff       	callq  400cd0 <puts@plt>
  40204d:	b8 00 00 00 00       	mov    $0x0,%eax
  402052:	e8 91 fb ff ff       	callq  401be8 <check_fail>
  402057:	ba 05 00 00 00       	mov    $0x5,%edx
  40205c:	be 68 36 40 00       	mov    $0x403668,%esi
  402061:	bf 01 00 00 00       	mov    $0x1,%edi
  402066:	b8 00 00 00 00       	mov    $0x0,%eax
  40206b:	e8 90 ed ff ff       	callq  400e00 <__printf_chk@plt>
  402070:	be 00 00 00 00       	mov    $0x0,%esi
  402075:	bf 00 00 00 00       	mov    $0x0,%edi
  40207a:	e8 f0 fb ff ff       	callq  401c6f <notify_server>
  40207f:	bf 01 00 00 00       	mov    $0x1,%edi
  402084:	e8 c7 ed ff ff       	callq  400e50 <exit@plt>

0000000000402089 <launch>:
  402089:	55                   	push   %rbp
  40208a:	48 89 e5             	mov    %rsp,%rbp
  40208d:	48 83 ec 10          	sub    $0x10,%rsp
  402091:	48 89 fa             	mov    %rdi,%rdx
  402094:	64 48 8b 04 25 28 00 	mov    %fs:0x28,%rax
  40209b:	00 00 
  40209d:	48 89 45 f8          	mov    %rax,-0x8(%rbp)
  4020a1:	31 c0                	xor    %eax,%eax
  4020a3:	48 8d 47 1e          	lea    0x1e(%rdi),%rax
  4020a7:	48 83 e0 f0          	and    $0xfffffffffffffff0,%rax
  4020ab:	48 29 c4             	sub    %rax,%rsp
  4020ae:	48 8d 7c 24 0f       	lea    0xf(%rsp),%rdi
  4020b3:	48 83 e7 f0          	and    $0xfffffffffffffff0,%rdi
  4020b7:	be f4 00 00 00       	mov    $0xf4,%esi
  4020bc:	e8 4f ec ff ff       	callq  400d10 <memset@plt>
  4020c1:	48 8b 05 f8 33 20 00 	mov    0x2033f8(%rip),%rax        # 6054c0 <stdin@@GLIBC_2.2.5>
  4020c8:	48 39 05 41 34 20 00 	cmp    %rax,0x203441(%rip)        # 605510 <infile>
  4020cf:	75 14                	jne    4020e5 <launch+0x5c>
  4020d1:	be d4 34 40 00       	mov    $0x4034d4,%esi
  4020d6:	bf 01 00 00 00       	mov    $0x1,%edi
  4020db:	b8 00 00 00 00       	mov    $0x0,%eax
  4020e0:	e8 1b ed ff ff       	callq  400e00 <__printf_chk@plt>
  4020e5:	c7 05 2d 34 20 00 00 	movl   $0x0,0x20342d(%rip)        # 60551c <vlevel>
  4020ec:	00 00 00 
  4020ef:	b8 00 00 00 00       	mov    $0x0,%eax
  4020f4:	e8 3e f9 ff ff       	callq  401a37 <test>
  4020f9:	83 3d 28 34 20 00 00 	cmpl   $0x0,0x203428(%rip)        # 605528 <is_checker>
  402100:	74 14                	je     402116 <launch+0x8d>
  402102:	bf e1 34 40 00       	mov    $0x4034e1,%edi
  402107:	e8 c4 eb ff ff       	callq  400cd0 <puts@plt>
  40210c:	b8 00 00 00 00       	mov    $0x0,%eax
  402111:	e8 d2 fa ff ff       	callq  401be8 <check_fail>
  402116:	bf ec 34 40 00       	mov    $0x4034ec,%edi
  40211b:	e8 b0 eb ff ff       	callq  400cd0 <puts@plt>
  402120:	48 8b 45 f8          	mov    -0x8(%rbp),%rax
  402124:	64 48 33 04 25 28 00 	xor    %fs:0x28,%rax
  40212b:	00 00 
  40212d:	74 05                	je     402134 <launch+0xab>
  40212f:	e8 bc eb ff ff       	callq  400cf0 <__stack_chk_fail@plt>
  402134:	c9                   	leaveq 
  402135:	c3                   	retq   

0000000000402136 <stable_launch>:
  402136:	53                   	push   %rbx
  402137:	48 89 3d ca 33 20 00 	mov    %rdi,0x2033ca(%rip)        # 605508 <global_offset>
  40213e:	41 b9 00 00 00 00    	mov    $0x0,%r9d
  402144:	41 b8 00 00 00 00    	mov    $0x0,%r8d
  40214a:	b9 32 01 00 00       	mov    $0x132,%ecx
  40214f:	ba 07 00 00 00       	mov    $0x7,%edx
  402154:	be 00 00 10 00       	mov    $0x100000,%esi
  402159:	bf 00 60 58 55       	mov    $0x55586000,%edi
  40215e:	e8 9d eb ff ff       	callq  400d00 <mmap@plt>
  402163:	48 89 c3             	mov    %rax,%rbx
  402166:	48 3d 00 60 58 55    	cmp    $0x55586000,%rax
  40216c:	74 37                	je     4021a5 <stable_launch+0x6f>
  40216e:	be 00 00 10 00       	mov    $0x100000,%esi
  402173:	48 89 c7             	mov    %rax,%rdi
  402176:	e8 75 ec ff ff       	callq  400df0 <munmap@plt>
  40217b:	b9 00 60 58 55       	mov    $0x55586000,%ecx
  402180:	ba a0 36 40 00       	mov    $0x4036a0,%edx
  402185:	be 01 00 00 00       	mov    $0x1,%esi
  40218a:	48 8b 3d 4f 33 20 00 	mov    0x20334f(%rip),%rdi        # 6054e0 <stderr@@GLIBC_2.2.5>
  402191:	b8 00 00 00 00       	mov    $0x0,%eax
  402196:	e8 d5 ec ff ff       	callq  400e70 <__fprintf_chk@plt>
  40219b:	bf 01 00 00 00       	mov    $0x1,%edi
  4021a0:	e8 ab ec ff ff       	callq  400e50 <exit@plt>
  4021a5:	48 8d 90 f8 ff 0f 00 	lea    0xffff8(%rax),%rdx
  4021ac:	48 89 15 9d 3f 20 00 	mov    %rdx,0x203f9d(%rip)        # 606150 <stack_top>
  4021b3:	48 89 e0             	mov    %rsp,%rax
  4021b6:	48 89 d4             	mov    %rdx,%rsp
  4021b9:	48 89 c2             	mov    %rax,%rdx
  4021bc:	48 89 15 3d 33 20 00 	mov    %rdx,0x20333d(%rip)        # 605500 <global_save_stack>
  4021c3:	48 8b 3d 3e 33 20 00 	mov    0x20333e(%rip),%rdi        # 605508 <global_offset>
  4021ca:	e8 ba fe ff ff       	callq  402089 <launch>
  4021cf:	48 8b 05 2a 33 20 00 	mov    0x20332a(%rip),%rax        # 605500 <global_save_stack>
  4021d6:	48 89 c4             	mov    %rax,%rsp
  4021d9:	be 00 00 10 00       	mov    $0x100000,%esi
  4021de:	48 89 df             	mov    %rbx,%rdi
  4021e1:	e8 0a ec ff ff       	callq  400df0 <munmap@plt>
  4021e6:	5b                   	pop    %rbx
  4021e7:	c3                   	retq   

00000000004021e8 <rio_readinitb>:
  4021e8:	89 37                	mov    %esi,(%rdi)
  4021ea:	c7 47 04 00 00 00 00 	movl   $0x0,0x4(%rdi)
  4021f1:	48 8d 47 10          	lea    0x10(%rdi),%rax
  4021f5:	48 89 47 08          	mov    %rax,0x8(%rdi)
  4021f9:	c3                   	retq   

00000000004021fa <sigalrm_handler>:
  4021fa:	48 83 ec 08          	sub    $0x8,%rsp
  4021fe:	b9 00 00 00 00       	mov    $0x0,%ecx
  402203:	ba e0 36 40 00       	mov    $0x4036e0,%edx
  402208:	be 01 00 00 00       	mov    $0x1,%esi
  40220d:	48 8b 3d cc 32 20 00 	mov    0x2032cc(%rip),%rdi        # 6054e0 <stderr@@GLIBC_2.2.5>
  402214:	b8 00 00 00 00       	mov    $0x0,%eax
  402219:	e8 52 ec ff ff       	callq  400e70 <__fprintf_chk@plt>
  40221e:	bf 01 00 00 00       	mov    $0x1,%edi
  402223:	e8 28 ec ff ff       	callq  400e50 <exit@plt>

0000000000402228 <rio_writen>:
  402228:	41 55                	push   %r13
  40222a:	41 54                	push   %r12
  40222c:	55                   	push   %rbp
  40222d:	53                   	push   %rbx
  40222e:	48 83 ec 08          	sub    $0x8,%rsp
  402232:	41 89 fc             	mov    %edi,%r12d
  402235:	48 89 f5             	mov    %rsi,%rbp
  402238:	49 89 d5             	mov    %rdx,%r13
  40223b:	48 89 d3             	mov    %rdx,%rbx
  40223e:	eb 28                	jmp    402268 <rio_writen+0x40>
  402240:	48 89 da             	mov    %rbx,%rdx
  402243:	48 89 ee             	mov    %rbp,%rsi
  402246:	44 89 e7             	mov    %r12d,%edi
  402249:	e8 92 ea ff ff       	callq  400ce0 <write@plt>
  40224e:	48 85 c0             	test   %rax,%rax
  402251:	7f 0f                	jg     402262 <rio_writen+0x3a>
  402253:	e8 38 ea ff ff       	callq  400c90 <__errno_location@plt>
  402258:	83 38 04             	cmpl   $0x4,(%rax)
  40225b:	75 15                	jne    402272 <rio_writen+0x4a>
  40225d:	b8 00 00 00 00       	mov    $0x0,%eax
  402262:	48 29 c3             	sub    %rax,%rbx
  402265:	48 01 c5             	add    %rax,%rbp
  402268:	48 85 db             	test   %rbx,%rbx
  40226b:	75 d3                	jne    402240 <rio_writen+0x18>
  40226d:	4c 89 e8             	mov    %r13,%rax
  402270:	eb 07                	jmp    402279 <rio_writen+0x51>
  402272:	48 c7 c0 ff ff ff ff 	mov    $0xffffffffffffffff,%rax
  402279:	48 83 c4 08          	add    $0x8,%rsp
  40227d:	5b                   	pop    %rbx
  40227e:	5d                   	pop    %rbp
  40227f:	41 5c                	pop    %r12
  402281:	41 5d                	pop    %r13
  402283:	c3                   	retq   

0000000000402284 <rio_read>:
  402284:	41 55                	push   %r13
  402286:	41 54                	push   %r12
  402288:	55                   	push   %rbp
  402289:	53                   	push   %rbx
  40228a:	48 83 ec 08          	sub    $0x8,%rsp
  40228e:	48 89 fb             	mov    %rdi,%rbx
  402291:	49 89 f5             	mov    %rsi,%r13
  402294:	49 89 d4             	mov    %rdx,%r12
  402297:	eb 2e                	jmp    4022c7 <rio_read+0x43>
  402299:	48 8d 6b 10          	lea    0x10(%rbx),%rbp
  40229d:	8b 3b                	mov    (%rbx),%edi
  40229f:	ba 00 20 00 00       	mov    $0x2000,%edx
  4022a4:	48 89 ee             	mov    %rbp,%rsi
  4022a7:	e8 94 ea ff ff       	callq  400d40 <read@plt>
  4022ac:	89 43 04             	mov    %eax,0x4(%rbx)
  4022af:	85 c0                	test   %eax,%eax
  4022b1:	79 0c                	jns    4022bf <rio_read+0x3b>
  4022b3:	e8 d8 e9 ff ff       	callq  400c90 <__errno_location@plt>
  4022b8:	83 38 04             	cmpl   $0x4,(%rax)
  4022bb:	74 0a                	je     4022c7 <rio_read+0x43>
  4022bd:	eb 37                	jmp    4022f6 <rio_read+0x72>
  4022bf:	85 c0                	test   %eax,%eax
  4022c1:	74 3c                	je     4022ff <rio_read+0x7b>
  4022c3:	48 89 6b 08          	mov    %rbp,0x8(%rbx)
  4022c7:	8b 6b 04             	mov    0x4(%rbx),%ebp
  4022ca:	85 ed                	test   %ebp,%ebp
  4022cc:	7e cb                	jle    402299 <rio_read+0x15>
  4022ce:	89 e8                	mov    %ebp,%eax
  4022d0:	49 39 c4             	cmp    %rax,%r12
  4022d3:	77 03                	ja     4022d8 <rio_read+0x54>
  4022d5:	44 89 e5             	mov    %r12d,%ebp
  4022d8:	4c 63 e5             	movslq %ebp,%r12
  4022db:	48 8b 73 08          	mov    0x8(%rbx),%rsi
  4022df:	4c 89 e2             	mov    %r12,%rdx
  4022e2:	4c 89 ef             	mov    %r13,%rdi
  4022e5:	e8 b6 ea ff ff       	callq  400da0 <memcpy@plt>
  4022ea:	4c 01 63 08          	add    %r12,0x8(%rbx)
  4022ee:	29 6b 04             	sub    %ebp,0x4(%rbx)
  4022f1:	4c 89 e0             	mov    %r12,%rax
  4022f4:	eb 0e                	jmp    402304 <rio_read+0x80>
  4022f6:	48 c7 c0 ff ff ff ff 	mov    $0xffffffffffffffff,%rax
  4022fd:	eb 05                	jmp    402304 <rio_read+0x80>
  4022ff:	b8 00 00 00 00       	mov    $0x0,%eax
  402304:	48 83 c4 08          	add    $0x8,%rsp
  402308:	5b                   	pop    %rbx
  402309:	5d                   	pop    %rbp
  40230a:	41 5c                	pop    %r12
  40230c:	41 5d                	pop    %r13
  40230e:	c3                   	retq   

000000000040230f <rio_readlineb>:
  40230f:	41 55                	push   %r13
  402311:	41 54                	push   %r12
  402313:	55                   	push   %rbp
  402314:	53                   	push   %rbx
  402315:	48 83 ec 18          	sub    $0x18,%rsp
  402319:	49 89 fd             	mov    %rdi,%r13
  40231c:	48 89 f5             	mov    %rsi,%rbp
  40231f:	49 89 d4             	mov    %rdx,%r12
  402322:	64 48 8b 04 25 28 00 	mov    %fs:0x28,%rax
  402329:	00 00 
  40232b:	48 89 44 24 08       	mov    %rax,0x8(%rsp)
  402330:	31 c0                	xor    %eax,%eax
  402332:	bb 01 00 00 00       	mov    $0x1,%ebx
  402337:	eb 3f                	jmp    402378 <rio_readlineb+0x69>
  402339:	ba 01 00 00 00       	mov    $0x1,%edx
  40233e:	48 8d 74 24 07       	lea    0x7(%rsp),%rsi
  402343:	4c 89 ef             	mov    %r13,%rdi
  402346:	e8 39 ff ff ff       	callq  402284 <rio_read>
  40234b:	83 f8 01             	cmp    $0x1,%eax
  40234e:	75 15                	jne    402365 <rio_readlineb+0x56>
  402350:	48 8d 45 01          	lea    0x1(%rbp),%rax
  402354:	0f b6 54 24 07       	movzbl 0x7(%rsp),%edx
  402359:	88 55 00             	mov    %dl,0x0(%rbp)
  40235c:	80 7c 24 07 0a       	cmpb   $0xa,0x7(%rsp)
  402361:	75 0e                	jne    402371 <rio_readlineb+0x62>
  402363:	eb 1a                	jmp    40237f <rio_readlineb+0x70>
  402365:	85 c0                	test   %eax,%eax
  402367:	75 22                	jne    40238b <rio_readlineb+0x7c>
  402369:	48 83 fb 01          	cmp    $0x1,%rbx
  40236d:	75 13                	jne    402382 <rio_readlineb+0x73>
  40236f:	eb 23                	jmp    402394 <rio_readlineb+0x85>
  402371:	48 83 c3 01          	add    $0x1,%rbx
  402375:	48 89 c5             	mov    %rax,%rbp
  402378:	4c 39 e3             	cmp    %r12,%rbx
  40237b:	72 bc                	jb     402339 <rio_readlineb+0x2a>
  40237d:	eb 03                	jmp    402382 <rio_readlineb+0x73>
  40237f:	48 89 c5             	mov    %rax,%rbp
  402382:	c6 45 00 00          	movb   $0x0,0x0(%rbp)
  402386:	48 89 d8             	mov    %rbx,%rax
  402389:	eb 0e                	jmp    402399 <rio_readlineb+0x8a>
  40238b:	48 c7 c0 ff ff ff ff 	mov    $0xffffffffffffffff,%rax
  402392:	eb 05                	jmp    402399 <rio_readlineb+0x8a>
  402394:	b8 00 00 00 00       	mov    $0x0,%eax
  402399:	48 8b 4c 24 08       	mov    0x8(%rsp),%rcx
  40239e:	64 48 33 0c 25 28 00 	xor    %fs:0x28,%rcx
  4023a5:	00 00 
  4023a7:	74 05                	je     4023ae <rio_readlineb+0x9f>
  4023a9:	e8 42 e9 ff ff       	callq  400cf0 <__stack_chk_fail@plt>
  4023ae:	48 83 c4 18          	add    $0x18,%rsp
  4023b2:	5b                   	pop    %rbx
  4023b3:	5d                   	pop    %rbp
  4023b4:	41 5c                	pop    %r12
  4023b6:	41 5d                	pop    %r13
  4023b8:	c3                   	retq   

00000000004023b9 <urlencode>:
  4023b9:	41 54                	push   %r12
  4023bb:	55                   	push   %rbp
  4023bc:	53                   	push   %rbx
  4023bd:	48 83 ec 10          	sub    $0x10,%rsp
  4023c1:	48 89 fb             	mov    %rdi,%rbx
  4023c4:	48 89 f5             	mov    %rsi,%rbp
  4023c7:	64 48 8b 04 25 28 00 	mov    %fs:0x28,%rax
  4023ce:	00 00 
  4023d0:	48 89 44 24 08       	mov    %rax,0x8(%rsp)
  4023d5:	31 c0                	xor    %eax,%eax
  4023d7:	48 c7 c1 ff ff ff ff 	mov    $0xffffffffffffffff,%rcx
  4023de:	f2 ae                	repnz scas %es:(%rdi),%al
  4023e0:	48 f7 d1             	not    %rcx
  4023e3:	8d 41 ff             	lea    -0x1(%rcx),%eax
  4023e6:	e9 aa 00 00 00       	jmpq   402495 <urlencode+0xdc>
  4023eb:	44 0f b6 03          	movzbl (%rbx),%r8d
  4023ef:	41 80 f8 2a          	cmp    $0x2a,%r8b
  4023f3:	0f 94 c2             	sete   %dl
  4023f6:	41 80 f8 2d          	cmp    $0x2d,%r8b
  4023fa:	0f 94 c0             	sete   %al
  4023fd:	08 c2                	or     %al,%dl
  4023ff:	75 24                	jne    402425 <urlencode+0x6c>
  402401:	41 80 f8 2e          	cmp    $0x2e,%r8b
  402405:	74 1e                	je     402425 <urlencode+0x6c>
  402407:	41 80 f8 5f          	cmp    $0x5f,%r8b
  40240b:	74 18                	je     402425 <urlencode+0x6c>
  40240d:	41 8d 40 d0          	lea    -0x30(%r8),%eax
  402411:	3c 09                	cmp    $0x9,%al
  402413:	76 10                	jbe    402425 <urlencode+0x6c>
  402415:	41 8d 40 bf          	lea    -0x41(%r8),%eax
  402419:	3c 19                	cmp    $0x19,%al
  40241b:	76 08                	jbe    402425 <urlencode+0x6c>
  40241d:	41 8d 40 9f          	lea    -0x61(%r8),%eax
  402421:	3c 19                	cmp    $0x19,%al
  402423:	77 0a                	ja     40242f <urlencode+0x76>
  402425:	44 88 45 00          	mov    %r8b,0x0(%rbp)
  402429:	48 8d 6d 01          	lea    0x1(%rbp),%rbp
  40242d:	eb 5f                	jmp    40248e <urlencode+0xd5>
  40242f:	41 80 f8 20          	cmp    $0x20,%r8b
  402433:	75 0a                	jne    40243f <urlencode+0x86>
  402435:	c6 45 00 2b          	movb   $0x2b,0x0(%rbp)
  402439:	48 8d 6d 01          	lea    0x1(%rbp),%rbp
  40243d:	eb 4f                	jmp    40248e <urlencode+0xd5>
  40243f:	41 8d 40 e0          	lea    -0x20(%r8),%eax
  402443:	3c 5f                	cmp    $0x5f,%al
  402445:	0f 96 c2             	setbe  %dl
  402448:	41 80 f8 09          	cmp    $0x9,%r8b
  40244c:	0f 94 c0             	sete   %al
  40244f:	08 c2                	or     %al,%dl
  402451:	74 50                	je     4024a3 <urlencode+0xea>
  402453:	45 0f b6 c0          	movzbl %r8b,%r8d
  402457:	b9 78 37 40 00       	mov    $0x403778,%ecx
  40245c:	ba 08 00 00 00       	mov    $0x8,%edx
  402461:	be 01 00 00 00       	mov    $0x1,%esi
  402466:	48 89 e7             	mov    %rsp,%rdi
  402469:	b8 00 00 00 00       	mov    $0x0,%eax
  40246e:	e8 0d ea ff ff       	callq  400e80 <__sprintf_chk@plt>
  402473:	0f b6 04 24          	movzbl (%rsp),%eax
  402477:	88 45 00             	mov    %al,0x0(%rbp)
  40247a:	0f b6 44 24 01       	movzbl 0x1(%rsp),%eax
  40247f:	88 45 01             	mov    %al,0x1(%rbp)
  402482:	0f b6 44 24 02       	movzbl 0x2(%rsp),%eax
  402487:	88 45 02             	mov    %al,0x2(%rbp)
  40248a:	48 8d 6d 03          	lea    0x3(%rbp),%rbp
  40248e:	48 83 c3 01          	add    $0x1,%rbx
  402492:	44 89 e0             	mov    %r12d,%eax
  402495:	44 8d 60 ff          	lea    -0x1(%rax),%r12d
  402499:	85 c0                	test   %eax,%eax
  40249b:	0f 85 4a ff ff ff    	jne    4023eb <urlencode+0x32>
  4024a1:	eb 05                	jmp    4024a8 <urlencode+0xef>
  4024a3:	b8 ff ff ff ff       	mov    $0xffffffff,%eax
  4024a8:	48 8b 74 24 08       	mov    0x8(%rsp),%rsi
  4024ad:	64 48 33 34 25 28 00 	xor    %fs:0x28,%rsi
  4024b4:	00 00 
  4024b6:	74 05                	je     4024bd <urlencode+0x104>
  4024b8:	e8 33 e8 ff ff       	callq  400cf0 <__stack_chk_fail@plt>
  4024bd:	48 83 c4 10          	add    $0x10,%rsp
  4024c1:	5b                   	pop    %rbx
  4024c2:	5d                   	pop    %rbp
  4024c3:	41 5c                	pop    %r12
  4024c5:	c3                   	retq   

00000000004024c6 <submitr>:
  4024c6:	41 57                	push   %r15
  4024c8:	41 56                	push   %r14
  4024ca:	41 55                	push   %r13
  4024cc:	41 54                	push   %r12
  4024ce:	55                   	push   %rbp
  4024cf:	53                   	push   %rbx
  4024d0:	48 81 ec 58 a0 00 00 	sub    $0xa058,%rsp
  4024d7:	49 89 fc             	mov    %rdi,%r12
  4024da:	89 74 24 04          	mov    %esi,0x4(%rsp)
  4024de:	49 89 d7             	mov    %rdx,%r15
  4024e1:	49 89 ce             	mov    %rcx,%r14
  4024e4:	4c 89 44 24 08       	mov    %r8,0x8(%rsp)
  4024e9:	4d 89 cd             	mov    %r9,%r13
  4024ec:	48 8b 9c 24 90 a0 00 	mov    0xa090(%rsp),%rbx
  4024f3:	00 
  4024f4:	64 48 8b 04 25 28 00 	mov    %fs:0x28,%rax
  4024fb:	00 00 
  4024fd:	48 89 84 24 48 a0 00 	mov    %rax,0xa048(%rsp)
  402504:	00 
  402505:	31 c0                	xor    %eax,%eax
  402507:	c7 44 24 1c 00 00 00 	movl   $0x0,0x1c(%rsp)
  40250e:	00 
  40250f:	ba 00 00 00 00       	mov    $0x0,%edx
  402514:	be 01 00 00 00       	mov    $0x1,%esi
  402519:	bf 02 00 00 00       	mov    $0x2,%edi
  40251e:	e8 6d e9 ff ff       	callq  400e90 <socket@plt>
  402523:	85 c0                	test   %eax,%eax
  402525:	79 4e                	jns    402575 <submitr+0xaf>
  402527:	48 b8 45 72 72 6f 72 	movabs $0x43203a726f727245,%rax
  40252e:	3a 20 43 
  402531:	48 89 03             	mov    %rax,(%rbx)
  402534:	48 b8 6c 69 65 6e 74 	movabs $0x6e7520746e65696c,%rax
  40253b:	20 75 6e 
  40253e:	48 89 43 08          	mov    %rax,0x8(%rbx)
  402542:	48 b8 61 62 6c 65 20 	movabs $0x206f7420656c6261,%rax
  402549:	74 6f 20 
  40254c:	48 89 43 10          	mov    %rax,0x10(%rbx)
  402550:	48 b8 63 72 65 61 74 	movabs $0x7320657461657263,%rax
  402557:	65 20 73 
  40255a:	48 89 43 18          	mov    %rax,0x18(%rbx)
  40255e:	c7 43 20 6f 63 6b 65 	movl   $0x656b636f,0x20(%rbx)
  402565:	66 c7 43 24 74 00    	movw   $0x74,0x24(%rbx)
  40256b:	b8 ff ff ff ff       	mov    $0xffffffff,%eax
  402570:	e9 97 06 00 00       	jmpq   402c0c <submitr+0x746>
  402575:	89 c5                	mov    %eax,%ebp
  402577:	4c 89 e7             	mov    %r12,%rdi
  40257a:	e8 f1 e7 ff ff       	callq  400d70 <gethostbyname@plt>
  40257f:	48 85 c0             	test   %rax,%rax
  402582:	75 67                	jne    4025eb <submitr+0x125>
  402584:	48 b8 45 72 72 6f 72 	movabs $0x44203a726f727245,%rax
  40258b:	3a 20 44 
  40258e:	48 89 03             	mov    %rax,(%rbx)
  402591:	48 b8 4e 53 20 69 73 	movabs $0x6e7520736920534e,%rax
  402598:	20 75 6e 
  40259b:	48 89 43 08          	mov    %rax,0x8(%rbx)
  40259f:	48 b8 61 62 6c 65 20 	movabs $0x206f7420656c6261,%rax
  4025a6:	74 6f 20 
  4025a9:	48 89 43 10          	mov    %rax,0x10(%rbx)
  4025ad:	48 b8 72 65 73 6f 6c 	movabs $0x2065766c6f736572,%rax
  4025b4:	76 65 20 
  4025b7:	48 89 43 18          	mov    %rax,0x18(%rbx)
  4025bb:	48 b8 73 65 72 76 65 	movabs $0x6120726576726573,%rax
  4025c2:	72 20 61 
  4025c5:	48 89 43 20          	mov    %rax,0x20(%rbx)
  4025c9:	c7 43 28 64 64 72 65 	movl   $0x65726464,0x28(%rbx)
  4025d0:	66 c7 43 2c 73 73    	movw   $0x7373,0x2c(%rbx)
  4025d6:	c6 43 2e 00          	movb   $0x0,0x2e(%rbx)
  4025da:	89 ef                	mov    %ebp,%edi
  4025dc:	e8 4f e7 ff ff       	callq  400d30 <close@plt>
  4025e1:	b8 ff ff ff ff       	mov    $0xffffffff,%eax
  4025e6:	e9 21 06 00 00       	jmpq   402c0c <submitr+0x746>
  4025eb:	48 c7 44 24 20 00 00 	movq   $0x0,0x20(%rsp)
  4025f2:	00 00 
  4025f4:	48 c7 44 24 28 00 00 	movq   $0x0,0x28(%rsp)
  4025fb:	00 00 
  4025fd:	66 c7 44 24 20 02 00 	movw   $0x2,0x20(%rsp)
  402604:	48 63 50 14          	movslq 0x14(%rax),%rdx
  402608:	48 8b 40 18          	mov    0x18(%rax),%rax
  40260c:	48 8b 30             	mov    (%rax),%rsi
  40260f:	48 8d 7c 24 24       	lea    0x24(%rsp),%rdi
  402614:	b9 0c 00 00 00       	mov    $0xc,%ecx
  402619:	e8 62 e7 ff ff       	callq  400d80 <__memmove_chk@plt>
  40261e:	0f b7 44 24 04       	movzwl 0x4(%rsp),%eax
  402623:	66 c1 c8 08          	ror    $0x8,%ax
  402627:	66 89 44 24 22       	mov    %ax,0x22(%rsp)
  40262c:	ba 10 00 00 00       	mov    $0x10,%edx
  402631:	48 8d 74 24 20       	lea    0x20(%rsp),%rsi
  402636:	89 ef                	mov    %ebp,%edi
  402638:	e8 23 e8 ff ff       	callq  400e60 <connect@plt>
  40263d:	85 c0                	test   %eax,%eax
  40263f:	79 59                	jns    40269a <submitr+0x1d4>
  402641:	48 b8 45 72 72 6f 72 	movabs $0x55203a726f727245,%rax
  402648:	3a 20 55 
  40264b:	48 89 03             	mov    %rax,(%rbx)
  40264e:	48 b8 6e 61 62 6c 65 	movabs $0x6f7420656c62616e,%rax
  402655:	20 74 6f 
  402658:	48 89 43 08          	mov    %rax,0x8(%rbx)
  40265c:	48 b8 20 63 6f 6e 6e 	movabs $0x7463656e6e6f6320,%rax
  402663:	65 63 74 
  402666:	48 89 43 10          	mov    %rax,0x10(%rbx)
  40266a:	48 b8 20 74 6f 20 74 	movabs $0x20656874206f7420,%rax
  402671:	68 65 20 
  402674:	48 89 43 18          	mov    %rax,0x18(%rbx)
  402678:	c7 43 20 73 65 72 76 	movl   $0x76726573,0x20(%rbx)
  40267f:	66 c7 43 24 65 72    	movw   $0x7265,0x24(%rbx)
  402685:	c6 43 26 00          	movb   $0x0,0x26(%rbx)
  402689:	89 ef                	mov    %ebp,%edi
  40268b:	e8 a0 e6 ff ff       	callq  400d30 <close@plt>
  402690:	b8 ff ff ff ff       	mov    $0xffffffff,%eax
  402695:	e9 72 05 00 00       	jmpq   402c0c <submitr+0x746>
  40269a:	48 c7 c6 ff ff ff ff 	mov    $0xffffffffffffffff,%rsi
  4026a1:	b8 00 00 00 00       	mov    $0x0,%eax
  4026a6:	48 89 f1             	mov    %rsi,%rcx
  4026a9:	4c 89 ef             	mov    %r13,%rdi
  4026ac:	f2 ae                	repnz scas %es:(%rdi),%al
  4026ae:	48 f7 d1             	not    %rcx
  4026b1:	48 89 ca             	mov    %rcx,%rdx
  4026b4:	48 89 f1             	mov    %rsi,%rcx
  4026b7:	4c 89 ff             	mov    %r15,%rdi
  4026ba:	f2 ae                	repnz scas %es:(%rdi),%al
  4026bc:	48 f7 d1             	not    %rcx
  4026bf:	49 89 c8             	mov    %rcx,%r8
  4026c2:	48 89 f1             	mov    %rsi,%rcx
  4026c5:	4c 89 f7             	mov    %r14,%rdi
  4026c8:	f2 ae                	repnz scas %es:(%rdi),%al
  4026ca:	48 f7 d1             	not    %rcx
  4026cd:	4d 8d 44 08 fe       	lea    -0x2(%r8,%rcx,1),%r8
  4026d2:	48 89 f1             	mov    %rsi,%rcx
  4026d5:	48 8b 7c 24 08       	mov    0x8(%rsp),%rdi
  4026da:	f2 ae                	repnz scas %es:(%rdi),%al
  4026dc:	48 89 c8             	mov    %rcx,%rax
  4026df:	48 f7 d0             	not    %rax
  4026e2:	49 8d 4c 00 ff       	lea    -0x1(%r8,%rax,1),%rcx
  4026e7:	48 8d 44 52 fd       	lea    -0x3(%rdx,%rdx,2),%rax
  4026ec:	48 8d 84 01 80 00 00 	lea    0x80(%rcx,%rax,1),%rax
  4026f3:	00 
  4026f4:	48 3d 00 20 00 00    	cmp    $0x2000,%rax
  4026fa:	76 72                	jbe    40276e <submitr+0x2a8>
  4026fc:	48 b8 45 72 72 6f 72 	movabs $0x52203a726f727245,%rax
  402703:	3a 20 52 
  402706:	48 89 03             	mov    %rax,(%rbx)
  402709:	48 b8 65 73 75 6c 74 	movabs $0x747320746c757365,%rax
  402710:	20 73 74 
  402713:	48 89 43 08          	mov    %rax,0x8(%rbx)
  402717:	48 b8 72 69 6e 67 20 	movabs $0x6f6f7420676e6972,%rax
  40271e:	74 6f 6f 
  402721:	48 89 43 10          	mov    %rax,0x10(%rbx)
  402725:	48 b8 20 6c 61 72 67 	movabs $0x202e656772616c20,%rax
  40272c:	65 2e 20 
  40272f:	48 89 43 18          	mov    %rax,0x18(%rbx)
  402733:	48 b8 49 6e 63 72 65 	movabs $0x6573616572636e49,%rax
  40273a:	61 73 65 
  40273d:	48 89 43 20          	mov    %rax,0x20(%rbx)
  402741:	48 b8 20 53 55 42 4d 	movabs $0x5254494d42555320,%rax
  402748:	49 54 52 
  40274b:	48 89 43 28          	mov    %rax,0x28(%rbx)
  40274f:	48 b8 5f 4d 41 58 42 	movabs $0x46554258414d5f,%rax
  402756:	55 46 00 
  402759:	48 89 43 30          	mov    %rax,0x30(%rbx)
  40275d:	89 ef                	mov    %ebp,%edi
  40275f:	e8 cc e5 ff ff       	callq  400d30 <close@plt>
  402764:	b8 ff ff ff ff       	mov    $0xffffffff,%eax
  402769:	e9 9e 04 00 00       	jmpq   402c0c <submitr+0x746>
  40276e:	48 8d b4 24 40 40 00 	lea    0x4040(%rsp),%rsi
  402775:	00 
  402776:	b9 00 04 00 00       	mov    $0x400,%ecx
  40277b:	b8 00 00 00 00       	mov    $0x0,%eax
  402780:	48 89 f7             	mov    %rsi,%rdi
  402783:	f3 48 ab             	rep stos %rax,%es:(%rdi)
  402786:	4c 89 ef             	mov    %r13,%rdi
  402789:	e8 2b fc ff ff       	callq  4023b9 <urlencode>
  40278e:	85 c0                	test   %eax,%eax
  402790:	0f 89 8a 00 00 00    	jns    402820 <submitr+0x35a>
  402796:	48 b8 45 72 72 6f 72 	movabs $0x52203a726f727245,%rax
  40279d:	3a 20 52 
  4027a0:	48 89 03             	mov    %rax,(%rbx)
  4027a3:	48 b8 65 73 75 6c 74 	movabs $0x747320746c757365,%rax
  4027aa:	20 73 74 
  4027ad:	48 89 43 08          	mov    %rax,0x8(%rbx)
  4027b1:	48 b8 72 69 6e 67 20 	movabs $0x6e6f6320676e6972,%rax
  4027b8:	63 6f 6e 
  4027bb:	48 89 43 10          	mov    %rax,0x10(%rbx)
  4027bf:	48 b8 74 61 69 6e 73 	movabs $0x6e6120736e696174,%rax
  4027c6:	20 61 6e 
  4027c9:	48 89 43 18          	mov    %rax,0x18(%rbx)
  4027cd:	48 b8 20 69 6c 6c 65 	movabs $0x6c6167656c6c6920,%rax
  4027d4:	67 61 6c 
  4027d7:	48 89 43 20          	mov    %rax,0x20(%rbx)
  4027db:	48 b8 20 6f 72 20 75 	movabs $0x72706e7520726f20,%rax
  4027e2:	6e 70 72 
  4027e5:	48 89 43 28          	mov    %rax,0x28(%rbx)
  4027e9:	48 b8 69 6e 74 61 62 	movabs $0x20656c6261746e69,%rax
  4027f0:	6c 65 20 
  4027f3:	48 89 43 30          	mov    %rax,0x30(%rbx)
  4027f7:	48 b8 63 68 61 72 61 	movabs $0x6574636172616863,%rax
  4027fe:	63 74 65 
  402801:	48 89 43 38          	mov    %rax,0x38(%rbx)
  402805:	66 c7 43 40 72 2e    	movw   $0x2e72,0x40(%rbx)
  40280b:	c6 43 42 00          	movb   $0x0,0x42(%rbx)
  40280f:	89 ef                	mov    %ebp,%edi
  402811:	e8 1a e5 ff ff       	callq  400d30 <close@plt>
  402816:	b8 ff ff ff ff       	mov    $0xffffffff,%eax
  40281b:	e9 ec 03 00 00       	jmpq   402c0c <submitr+0x746>
  402820:	4c 8d ac 24 40 20 00 	lea    0x2040(%rsp),%r13
  402827:	00 
  402828:	41 54                	push   %r12
  40282a:	48 8d 84 24 48 40 00 	lea    0x4048(%rsp),%rax
  402831:	00 
  402832:	50                   	push   %rax
  402833:	4d 89 f9             	mov    %r15,%r9
  402836:	4d 89 f0             	mov    %r14,%r8
  402839:	b9 08 37 40 00       	mov    $0x403708,%ecx
  40283e:	ba 00 20 00 00       	mov    $0x2000,%edx
  402843:	be 01 00 00 00       	mov    $0x1,%esi
  402848:	4c 89 ef             	mov    %r13,%rdi
  40284b:	b8 00 00 00 00       	mov    $0x0,%eax
  402850:	e8 2b e6 ff ff       	callq  400e80 <__sprintf_chk@plt>
  402855:	b8 00 00 00 00       	mov    $0x0,%eax
  40285a:	48 c7 c1 ff ff ff ff 	mov    $0xffffffffffffffff,%rcx
  402861:	4c 89 ef             	mov    %r13,%rdi
  402864:	f2 ae                	repnz scas %es:(%rdi),%al
  402866:	48 f7 d1             	not    %rcx
  402869:	48 8d 51 ff          	lea    -0x1(%rcx),%rdx
  40286d:	4c 89 ee             	mov    %r13,%rsi
  402870:	89 ef                	mov    %ebp,%edi
  402872:	e8 b1 f9 ff ff       	callq  402228 <rio_writen>
  402877:	48 83 c4 10          	add    $0x10,%rsp
  40287b:	48 85 c0             	test   %rax,%rax
  40287e:	79 6e                	jns    4028ee <submitr+0x428>
  402880:	48 b8 45 72 72 6f 72 	movabs $0x43203a726f727245,%rax
  402887:	3a 20 43 
  40288a:	48 89 03             	mov    %rax,(%rbx)
  40288d:	48 b8 6c 69 65 6e 74 	movabs $0x6e7520746e65696c,%rax
  402894:	20 75 6e 
  402897:	48 89 43 08          	mov    %rax,0x8(%rbx)
  40289b:	48 b8 61 62 6c 65 20 	movabs $0x206f7420656c6261,%rax
  4028a2:	74 6f 20 
  4028a5:	48 89 43 10          	mov    %rax,0x10(%rbx)
  4028a9:	48 b8 77 72 69 74 65 	movabs $0x6f74206574697277,%rax
  4028b0:	20 74 6f 
  4028b3:	48 89 43 18          	mov    %rax,0x18(%rbx)
  4028b7:	48 b8 20 74 68 65 20 	movabs $0x7365722065687420,%rax
  4028be:	72 65 73 
  4028c1:	48 89 43 20          	mov    %rax,0x20(%rbx)
  4028c5:	48 b8 75 6c 74 20 73 	movabs $0x7672657320746c75,%rax
  4028cc:	65 72 76 
  4028cf:	48 89 43 28          	mov    %rax,0x28(%rbx)
  4028d3:	66 c7 43 30 65 72    	movw   $0x7265,0x30(%rbx)
  4028d9:	c6 43 32 00          	movb   $0x0,0x32(%rbx)
  4028dd:	89 ef                	mov    %ebp,%edi
  4028df:	e8 4c e4 ff ff       	callq  400d30 <close@plt>
  4028e4:	b8 ff ff ff ff       	mov    $0xffffffff,%eax
  4028e9:	e9 1e 03 00 00       	jmpq   402c0c <submitr+0x746>
  4028ee:	89 ee                	mov    %ebp,%esi
  4028f0:	48 8d 7c 24 30       	lea    0x30(%rsp),%rdi
  4028f5:	e8 ee f8 ff ff       	callq  4021e8 <rio_readinitb>
  4028fa:	ba 00 20 00 00       	mov    $0x2000,%edx
  4028ff:	48 8d b4 24 40 20 00 	lea    0x2040(%rsp),%rsi
  402906:	00 
  402907:	48 8d 7c 24 30       	lea    0x30(%rsp),%rdi
  40290c:	e8 fe f9 ff ff       	callq  40230f <rio_readlineb>
  402911:	48 85 c0             	test   %rax,%rax
  402914:	7f 7d                	jg     402993 <submitr+0x4cd>
  402916:	48 b8 45 72 72 6f 72 	movabs $0x43203a726f727245,%rax
  40291d:	3a 20 43 
  402920:	48 89 03             	mov    %rax,(%rbx)
  402923:	48 b8 6c 69 65 6e 74 	movabs $0x6e7520746e65696c,%rax
  40292a:	20 75 6e 
  40292d:	48 89 43 08          	mov    %rax,0x8(%rbx)
  402931:	48 b8 61 62 6c 65 20 	movabs $0x206f7420656c6261,%rax
  402938:	74 6f 20 
  40293b:	48 89 43 10          	mov    %rax,0x10(%rbx)
  40293f:	48 b8 72 65 61 64 20 	movabs $0x7269662064616572,%rax
  402946:	66 69 72 
  402949:	48 89 43 18          	mov    %rax,0x18(%rbx)
  40294d:	48 b8 73 74 20 68 65 	movabs $0x6564616568207473,%rax
  402954:	61 64 65 
  402957:	48 89 43 20          	mov    %rax,0x20(%rbx)
  40295b:	48 b8 72 20 66 72 6f 	movabs $0x72206d6f72662072,%rax
  402962:	6d 20 72 
  402965:	48 89 43 28          	mov    %rax,0x28(%rbx)
  402969:	48 b8 65 73 75 6c 74 	movabs $0x657320746c757365,%rax
  402970:	20 73 65 
  402973:	48 89 43 30          	mov    %rax,0x30(%rbx)
  402977:	c7 43 38 72 76 65 72 	movl   $0x72657672,0x38(%rbx)
  40297e:	c6 43 3c 00          	movb   $0x0,0x3c(%rbx)
  402982:	89 ef                	mov    %ebp,%edi
  402984:	e8 a7 e3 ff ff       	callq  400d30 <close@plt>
  402989:	b8 ff ff ff ff       	mov    $0xffffffff,%eax
  40298e:	e9 79 02 00 00       	jmpq   402c0c <submitr+0x746>
  402993:	4c 8d 84 24 40 80 00 	lea    0x8040(%rsp),%r8
  40299a:	00 
  40299b:	48 8d 4c 24 1c       	lea    0x1c(%rsp),%rcx
  4029a0:	48 8d 94 24 40 60 00 	lea    0x6040(%rsp),%rdx
  4029a7:	00 
  4029a8:	be 7f 37 40 00       	mov    $0x40377f,%esi
  4029ad:	48 8d bc 24 40 20 00 	lea    0x2040(%rsp),%rdi
  4029b4:	00 
  4029b5:	b8 00 00 00 00       	mov    $0x0,%eax
  4029ba:	e8 21 e4 ff ff       	callq  400de0 <__isoc99_sscanf@plt>
  4029bf:	e9 95 00 00 00       	jmpq   402a59 <submitr+0x593>
  4029c4:	ba 00 20 00 00       	mov    $0x2000,%edx
  4029c9:	48 8d b4 24 40 20 00 	lea    0x2040(%rsp),%rsi
  4029d0:	00 
  4029d1:	48 8d 7c 24 30       	lea    0x30(%rsp),%rdi
  4029d6:	e8 34 f9 ff ff       	callq  40230f <rio_readlineb>
  4029db:	48 85 c0             	test   %rax,%rax
  4029de:	7f 79                	jg     402a59 <submitr+0x593>
  4029e0:	48 b8 45 72 72 6f 72 	movabs $0x43203a726f727245,%rax
  4029e7:	3a 20 43 
  4029ea:	48 89 03             	mov    %rax,(%rbx)
  4029ed:	48 b8 6c 69 65 6e 74 	movabs $0x6e7520746e65696c,%rax
  4029f4:	20 75 6e 
  4029f7:	48 89 43 08          	mov    %rax,0x8(%rbx)
  4029fb:	48 b8 61 62 6c 65 20 	movabs $0x206f7420656c6261,%rax
  402a02:	74 6f 20 
  402a05:	48 89 43 10          	mov    %rax,0x10(%rbx)
  402a09:	48 b8 72 65 61 64 20 	movabs $0x6165682064616572,%rax
  402a10:	68 65 61 
  402a13:	48 89 43 18          	mov    %rax,0x18(%rbx)
  402a17:	48 b8 64 65 72 73 20 	movabs $0x6f72662073726564,%rax
  402a1e:	66 72 6f 
  402a21:	48 89 43 20          	mov    %rax,0x20(%rbx)
  402a25:	48 b8 6d 20 74 68 65 	movabs $0x657220656874206d,%rax
  402a2c:	20 72 65 
  402a2f:	48 89 43 28          	mov    %rax,0x28(%rbx)
  402a33:	48 b8 73 75 6c 74 20 	movabs $0x72657320746c7573,%rax
  402a3a:	73 65 72 
  402a3d:	48 89 43 30          	mov    %rax,0x30(%rbx)
  402a41:	c7 43 38 76 65 72 00 	movl   $0x726576,0x38(%rbx)
  402a48:	89 ef                	mov    %ebp,%edi
  402a4a:	e8 e1 e2 ff ff       	callq  400d30 <close@plt>
  402a4f:	b8 ff ff ff ff       	mov    $0xffffffff,%eax
  402a54:	e9 b3 01 00 00       	jmpq   402c0c <submitr+0x746>
  402a59:	0f b6 94 24 40 20 00 	movzbl 0x2040(%rsp),%edx
  402a60:	00 
  402a61:	b8 0d 00 00 00       	mov    $0xd,%eax
  402a66:	29 d0                	sub    %edx,%eax
  402a68:	75 1b                	jne    402a85 <submitr+0x5bf>
  402a6a:	0f b6 94 24 41 20 00 	movzbl 0x2041(%rsp),%edx
  402a71:	00 
  402a72:	b8 0a 00 00 00       	mov    $0xa,%eax
  402a77:	29 d0                	sub    %edx,%eax
  402a79:	75 0a                	jne    402a85 <submitr+0x5bf>
  402a7b:	0f b6 84 24 42 20 00 	movzbl 0x2042(%rsp),%eax
  402a82:	00 
  402a83:	f7 d8                	neg    %eax
  402a85:	85 c0                	test   %eax,%eax
  402a87:	0f 85 37 ff ff ff    	jne    4029c4 <submitr+0x4fe>
  402a8d:	ba 00 20 00 00       	mov    $0x2000,%edx
  402a92:	48 8d b4 24 40 20 00 	lea    0x2040(%rsp),%rsi
  402a99:	00 
  402a9a:	48 8d 7c 24 30       	lea    0x30(%rsp),%rdi
  402a9f:	e8 6b f8 ff ff       	callq  40230f <rio_readlineb>
  402aa4:	48 85 c0             	test   %rax,%rax
  402aa7:	0f 8f 83 00 00 00    	jg     402b30 <submitr+0x66a>
  402aad:	48 b8 45 72 72 6f 72 	movabs $0x43203a726f727245,%rax
  402ab4:	3a 20 43 
  402ab7:	48 89 03             	mov    %rax,(%rbx)
  402aba:	48 b8 6c 69 65 6e 74 	movabs $0x6e7520746e65696c,%rax
  402ac1:	20 75 6e 
  402ac4:	48 89 43 08          	mov    %rax,0x8(%rbx)
  402ac8:	48 b8 61 62 6c 65 20 	movabs $0x206f7420656c6261,%rax
  402acf:	74 6f 20 
  402ad2:	48 89 43 10          	mov    %rax,0x10(%rbx)
  402ad6:	48 b8 72 65 61 64 20 	movabs $0x6174732064616572,%rax
  402add:	73 74 61 
  402ae0:	48 89 43 18          	mov    %rax,0x18(%rbx)
  402ae4:	48 b8 74 75 73 20 6d 	movabs $0x7373656d20737574,%rax
  402aeb:	65 73 73 
  402aee:	48 89 43 20          	mov    %rax,0x20(%rbx)
  402af2:	48 b8 61 67 65 20 66 	movabs $0x6d6f726620656761,%rax
  402af9:	72 6f 6d 
  402afc:	48 89 43 28          	mov    %rax,0x28(%rbx)
  402b00:	48 b8 20 72 65 73 75 	movabs $0x20746c7573657220,%rax
  402b07:	6c 74 20 
  402b0a:	48 89 43 30          	mov    %rax,0x30(%rbx)
  402b0e:	c7 43 38 73 65 72 76 	movl   $0x76726573,0x38(%rbx)
  402b15:	66 c7 43 3c 65 72    	movw   $0x7265,0x3c(%rbx)
  402b1b:	c6 43 3e 00          	movb   $0x0,0x3e(%rbx)
  402b1f:	89 ef                	mov    %ebp,%edi
  402b21:	e8 0a e2 ff ff       	callq  400d30 <close@plt>
  402b26:	b8 ff ff ff ff       	mov    $0xffffffff,%eax
  402b2b:	e9 dc 00 00 00       	jmpq   402c0c <submitr+0x746>
  402b30:	44 8b 44 24 1c       	mov    0x1c(%rsp),%r8d
  402b35:	41 81 f8 c8 00 00 00 	cmp    $0xc8,%r8d
  402b3c:	74 37                	je     402b75 <submitr+0x6af>
  402b3e:	4c 8d 8c 24 40 80 00 	lea    0x8040(%rsp),%r9
  402b45:	00 
  402b46:	b9 48 37 40 00       	mov    $0x403748,%ecx
  402b4b:	48 c7 c2 ff ff ff ff 	mov    $0xffffffffffffffff,%rdx
  402b52:	be 01 00 00 00       	mov    $0x1,%esi
  402b57:	48 89 df             	mov    %rbx,%rdi
  402b5a:	b8 00 00 00 00       	mov    $0x0,%eax
  402b5f:	e8 1c e3 ff ff       	callq  400e80 <__sprintf_chk@plt>
  402b64:	89 ef                	mov    %ebp,%edi
  402b66:	e8 c5 e1 ff ff       	callq  400d30 <close@plt>
  402b6b:	b8 ff ff ff ff       	mov    $0xffffffff,%eax
  402b70:	e9 97 00 00 00       	jmpq   402c0c <submitr+0x746>
  402b75:	48 8d b4 24 40 20 00 	lea    0x2040(%rsp),%rsi
  402b7c:	00 
  402b7d:	48 89 df             	mov    %rbx,%rdi
  402b80:	e8 3b e1 ff ff       	callq  400cc0 <strcpy@plt>
  402b85:	89 ef                	mov    %ebp,%edi
  402b87:	e8 a4 e1 ff ff       	callq  400d30 <close@plt>
  402b8c:	0f b6 03             	movzbl (%rbx),%eax
  402b8f:	ba 4f 00 00 00       	mov    $0x4f,%edx
  402b94:	29 c2                	sub    %eax,%edx
  402b96:	75 22                	jne    402bba <submitr+0x6f4>
  402b98:	0f b6 4b 01          	movzbl 0x1(%rbx),%ecx
  402b9c:	b8 4b 00 00 00       	mov    $0x4b,%eax
  402ba1:	29 c8                	sub    %ecx,%eax
  402ba3:	75 17                	jne    402bbc <submitr+0x6f6>
  402ba5:	0f b6 4b 02          	movzbl 0x2(%rbx),%ecx
  402ba9:	b8 0a 00 00 00       	mov    $0xa,%eax
  402bae:	29 c8                	sub    %ecx,%eax
  402bb0:	75 0a                	jne    402bbc <submitr+0x6f6>
  402bb2:	0f b6 43 03          	movzbl 0x3(%rbx),%eax
  402bb6:	f7 d8                	neg    %eax
  402bb8:	eb 02                	jmp    402bbc <submitr+0x6f6>
  402bba:	89 d0                	mov    %edx,%eax
  402bbc:	85 c0                	test   %eax,%eax
  402bbe:	74 40                	je     402c00 <submitr+0x73a>
  402bc0:	bf 90 37 40 00       	mov    $0x403790,%edi
  402bc5:	b9 05 00 00 00       	mov    $0x5,%ecx
  402bca:	48 89 de             	mov    %rbx,%rsi
  402bcd:	f3 a6                	repz cmpsb %es:(%rdi),%ds:(%rsi)
  402bcf:	0f 97 c0             	seta   %al
  402bd2:	0f 92 c1             	setb   %cl
  402bd5:	29 c8                	sub    %ecx,%eax
  402bd7:	0f be c0             	movsbl %al,%eax
  402bda:	85 c0                	test   %eax,%eax
  402bdc:	74 2e                	je     402c0c <submitr+0x746>
  402bde:	85 d2                	test   %edx,%edx
  402be0:	75 13                	jne    402bf5 <submitr+0x72f>
  402be2:	0f b6 43 01          	movzbl 0x1(%rbx),%eax
  402be6:	ba 4b 00 00 00       	mov    $0x4b,%edx
  402beb:	29 c2                	sub    %eax,%edx
  402bed:	75 06                	jne    402bf5 <submitr+0x72f>
  402bef:	0f b6 53 02          	movzbl 0x2(%rbx),%edx
  402bf3:	f7 da                	neg    %edx
  402bf5:	85 d2                	test   %edx,%edx
  402bf7:	75 0e                	jne    402c07 <submitr+0x741>
  402bf9:	b8 00 00 00 00       	mov    $0x0,%eax
  402bfe:	eb 0c                	jmp    402c0c <submitr+0x746>
  402c00:	b8 00 00 00 00       	mov    $0x0,%eax
  402c05:	eb 05                	jmp    402c0c <submitr+0x746>
  402c07:	b8 ff ff ff ff       	mov    $0xffffffff,%eax
  402c0c:	48 8b 9c 24 48 a0 00 	mov    0xa048(%rsp),%rbx
  402c13:	00 
  402c14:	64 48 33 1c 25 28 00 	xor    %fs:0x28,%rbx
  402c1b:	00 00 
  402c1d:	74 05                	je     402c24 <submitr+0x75e>
  402c1f:	e8 cc e0 ff ff       	callq  400cf0 <__stack_chk_fail@plt>
  402c24:	48 81 c4 58 a0 00 00 	add    $0xa058,%rsp
  402c2b:	5b                   	pop    %rbx
  402c2c:	5d                   	pop    %rbp
  402c2d:	41 5c                	pop    %r12
  402c2f:	41 5d                	pop    %r13
  402c31:	41 5e                	pop    %r14
  402c33:	41 5f                	pop    %r15
  402c35:	c3                   	retq   

0000000000402c36 <init_timeout>:
  402c36:	85 ff                	test   %edi,%edi
  402c38:	74 23                	je     402c5d <init_timeout+0x27>
  402c3a:	53                   	push   %rbx
  402c3b:	89 fb                	mov    %edi,%ebx
  402c3d:	85 ff                	test   %edi,%edi
  402c3f:	79 05                	jns    402c46 <init_timeout+0x10>
  402c41:	bb 00 00 00 00       	mov    $0x0,%ebx
  402c46:	be fa 21 40 00       	mov    $0x4021fa,%esi
  402c4b:	bf 0e 00 00 00       	mov    $0xe,%edi
  402c50:	e8 0b e1 ff ff       	callq  400d60 <signal@plt>
  402c55:	89 df                	mov    %ebx,%edi
  402c57:	e8 c4 e0 ff ff       	callq  400d20 <alarm@plt>
  402c5c:	5b                   	pop    %rbx
  402c5d:	f3 c3                	repz retq 

0000000000402c5f <init_driver>:
  402c5f:	55                   	push   %rbp
  402c60:	53                   	push   %rbx
  402c61:	48 83 ec 28          	sub    $0x28,%rsp
  402c65:	48 89 fd             	mov    %rdi,%rbp
  402c68:	64 48 8b 04 25 28 00 	mov    %fs:0x28,%rax
  402c6f:	00 00 
  402c71:	48 89 44 24 18       	mov    %rax,0x18(%rsp)
  402c76:	31 c0                	xor    %eax,%eax
  402c78:	be 01 00 00 00       	mov    $0x1,%esi
  402c7d:	bf 0d 00 00 00       	mov    $0xd,%edi
  402c82:	e8 d9 e0 ff ff       	callq  400d60 <signal@plt>
  402c87:	be 01 00 00 00       	mov    $0x1,%esi
  402c8c:	bf 1d 00 00 00       	mov    $0x1d,%edi
  402c91:	e8 ca e0 ff ff       	callq  400d60 <signal@plt>
  402c96:	be 01 00 00 00       	mov    $0x1,%esi
  402c9b:	bf 1d 00 00 00       	mov    $0x1d,%edi
  402ca0:	e8 bb e0 ff ff       	callq  400d60 <signal@plt>
  402ca5:	ba 00 00 00 00       	mov    $0x0,%edx
  402caa:	be 01 00 00 00       	mov    $0x1,%esi
  402caf:	bf 02 00 00 00       	mov    $0x2,%edi
  402cb4:	e8 d7 e1 ff ff       	callq  400e90 <socket@plt>
  402cb9:	85 c0                	test   %eax,%eax
  402cbb:	79 4f                	jns    402d0c <init_driver+0xad>
  402cbd:	48 b8 45 72 72 6f 72 	movabs $0x43203a726f727245,%rax
  402cc4:	3a 20 43 
  402cc7:	48 89 45 00          	mov    %rax,0x0(%rbp)
  402ccb:	48 b8 6c 69 65 6e 74 	movabs $0x6e7520746e65696c,%rax
  402cd2:	20 75 6e 
  402cd5:	48 89 45 08          	mov    %rax,0x8(%rbp)
  402cd9:	48 b8 61 62 6c 65 20 	movabs $0x206f7420656c6261,%rax
  402ce0:	74 6f 20 
  402ce3:	48 89 45 10          	mov    %rax,0x10(%rbp)
  402ce7:	48 b8 63 72 65 61 74 	movabs $0x7320657461657263,%rax
  402cee:	65 20 73 
  402cf1:	48 89 45 18          	mov    %rax,0x18(%rbp)
  402cf5:	c7 45 20 6f 63 6b 65 	movl   $0x656b636f,0x20(%rbp)
  402cfc:	66 c7 45 24 74 00    	movw   $0x74,0x24(%rbp)
  402d02:	b8 ff ff ff ff       	mov    $0xffffffff,%eax
  402d07:	e9 2a 01 00 00       	jmpq   402e36 <init_driver+0x1d7>
  402d0c:	89 c3                	mov    %eax,%ebx
  402d0e:	bf 95 37 40 00       	mov    $0x403795,%edi
  402d13:	e8 58 e0 ff ff       	callq  400d70 <gethostbyname@plt>
  402d18:	48 85 c0             	test   %rax,%rax
  402d1b:	75 68                	jne    402d85 <init_driver+0x126>
  402d1d:	48 b8 45 72 72 6f 72 	movabs $0x44203a726f727245,%rax
  402d24:	3a 20 44 
  402d27:	48 89 45 00          	mov    %rax,0x0(%rbp)
  402d2b:	48 b8 4e 53 20 69 73 	movabs $0x6e7520736920534e,%rax
  402d32:	20 75 6e 
  402d35:	48 89 45 08          	mov    %rax,0x8(%rbp)
  402d39:	48 b8 61 62 6c 65 20 	movabs $0x206f7420656c6261,%rax
  402d40:	74 6f 20 
  402d43:	48 89 45 10          	mov    %rax,0x10(%rbp)
  402d47:	48 b8 72 65 73 6f 6c 	movabs $0x2065766c6f736572,%rax
  402d4e:	76 65 20 
  402d51:	48 89 45 18          	mov    %rax,0x18(%rbp)
  402d55:	48 b8 73 65 72 76 65 	movabs $0x6120726576726573,%rax
  402d5c:	72 20 61 
  402d5f:	48 89 45 20          	mov    %rax,0x20(%rbp)
  402d63:	c7 45 28 64 64 72 65 	movl   $0x65726464,0x28(%rbp)
  402d6a:	66 c7 45 2c 73 73    	movw   $0x7373,0x2c(%rbp)
  402d70:	c6 45 2e 00          	movb   $0x0,0x2e(%rbp)
  402d74:	89 df                	mov    %ebx,%edi
  402d76:	e8 b5 df ff ff       	callq  400d30 <close@plt>
  402d7b:	b8 ff ff ff ff       	mov    $0xffffffff,%eax
  402d80:	e9 b1 00 00 00       	jmpq   402e36 <init_driver+0x1d7>
  402d85:	48 c7 04 24 00 00 00 	movq   $0x0,(%rsp)
  402d8c:	00 
  402d8d:	48 c7 44 24 08 00 00 	movq   $0x0,0x8(%rsp)
  402d94:	00 00 
  402d96:	66 c7 04 24 02 00    	movw   $0x2,(%rsp)
  402d9c:	48 63 50 14          	movslq 0x14(%rax),%rdx
  402da0:	48 8b 40 18          	mov    0x18(%rax),%rax
  402da4:	48 8b 30             	mov    (%rax),%rsi
  402da7:	48 8d 7c 24 04       	lea    0x4(%rsp),%rdi
  402dac:	b9 0c 00 00 00       	mov    $0xc,%ecx
  402db1:	e8 ca df ff ff       	callq  400d80 <__memmove_chk@plt>
  402db6:	66 c7 44 24 02 3c 9a 	movw   $0x9a3c,0x2(%rsp)
  402dbd:	ba 10 00 00 00       	mov    $0x10,%edx
  402dc2:	48 89 e6             	mov    %rsp,%rsi
  402dc5:	89 df                	mov    %ebx,%edi
  402dc7:	e8 94 e0 ff ff       	callq  400e60 <connect@plt>
  402dcc:	85 c0                	test   %eax,%eax
  402dce:	79 50                	jns    402e20 <init_driver+0x1c1>
  402dd0:	48 b8 45 72 72 6f 72 	movabs $0x55203a726f727245,%rax
  402dd7:	3a 20 55 
  402dda:	48 89 45 00          	mov    %rax,0x0(%rbp)
  402dde:	48 b8 6e 61 62 6c 65 	movabs $0x6f7420656c62616e,%rax
  402de5:	20 74 6f 
  402de8:	48 89 45 08          	mov    %rax,0x8(%rbp)
  402dec:	48 b8 20 63 6f 6e 6e 	movabs $0x7463656e6e6f6320,%rax
  402df3:	65 63 74 
  402df6:	48 89 45 10          	mov    %rax,0x10(%rbp)
  402dfa:	48 b8 20 74 6f 20 73 	movabs $0x76726573206f7420,%rax
  402e01:	65 72 76 
  402e04:	48 89 45 18          	mov    %rax,0x18(%rbp)
  402e08:	66 c7 45 20 65 72    	movw   $0x7265,0x20(%rbp)
  402e0e:	c6 45 22 00          	movb   $0x0,0x22(%rbp)
  402e12:	89 df                	mov    %ebx,%edi
  402e14:	e8 17 df ff ff       	callq  400d30 <close@plt>
  402e19:	b8 ff ff ff ff       	mov    $0xffffffff,%eax
  402e1e:	eb 16                	jmp    402e36 <init_driver+0x1d7>
  402e20:	89 df                	mov    %ebx,%edi
  402e22:	e8 09 df ff ff       	callq  400d30 <close@plt>
  402e27:	66 c7 45 00 4f 4b    	movw   $0x4b4f,0x0(%rbp)
  402e2d:	c6 45 02 00          	movb   $0x0,0x2(%rbp)
  402e31:	b8 00 00 00 00       	mov    $0x0,%eax
  402e36:	48 8b 4c 24 18       	mov    0x18(%rsp),%rcx
  402e3b:	64 48 33 0c 25 28 00 	xor    %fs:0x28,%rcx
  402e42:	00 00 
  402e44:	74 05                	je     402e4b <init_driver+0x1ec>
  402e46:	e8 a5 de ff ff       	callq  400cf0 <__stack_chk_fail@plt>
  402e4b:	48 83 c4 28          	add    $0x28,%rsp
  402e4f:	5b                   	pop    %rbx
  402e50:	5d                   	pop    %rbp
  402e51:	c3                   	retq   

0000000000402e52 <driver_post>:
  402e52:	53                   	push   %rbx
  402e53:	4c 89 cb             	mov    %r9,%rbx
  402e56:	45 85 c0             	test   %r8d,%r8d
  402e59:	74 27                	je     402e82 <driver_post+0x30>
  402e5b:	48 89 ca             	mov    %rcx,%rdx
  402e5e:	be ad 37 40 00       	mov    $0x4037ad,%esi
  402e63:	bf 01 00 00 00       	mov    $0x1,%edi
  402e68:	b8 00 00 00 00       	mov    $0x0,%eax
  402e6d:	e8 8e df ff ff       	callq  400e00 <__printf_chk@plt>
  402e72:	66 c7 03 4f 4b       	movw   $0x4b4f,(%rbx)
  402e77:	c6 43 02 00          	movb   $0x0,0x2(%rbx)
  402e7b:	b8 00 00 00 00       	mov    $0x0,%eax
  402e80:	eb 3f                	jmp    402ec1 <driver_post+0x6f>
  402e82:	48 85 ff             	test   %rdi,%rdi
  402e85:	74 2c                	je     402eb3 <driver_post+0x61>
  402e87:	80 3f 00             	cmpb   $0x0,(%rdi)
  402e8a:	74 27                	je     402eb3 <driver_post+0x61>
  402e8c:	48 83 ec 08          	sub    $0x8,%rsp
  402e90:	41 51                	push   %r9
  402e92:	49 89 c9             	mov    %rcx,%r9
  402e95:	49 89 d0             	mov    %rdx,%r8
  402e98:	48 89 f9             	mov    %rdi,%rcx
  402e9b:	48 89 f2             	mov    %rsi,%rdx
  402e9e:	be 9a 3c 00 00       	mov    $0x3c9a,%esi
  402ea3:	bf 95 37 40 00       	mov    $0x403795,%edi
  402ea8:	e8 19 f6 ff ff       	callq  4024c6 <submitr>
  402ead:	48 83 c4 10          	add    $0x10,%rsp
  402eb1:	eb 0e                	jmp    402ec1 <driver_post+0x6f>
  402eb3:	66 c7 03 4f 4b       	movw   $0x4b4f,(%rbx)
  402eb8:	c6 43 02 00          	movb   $0x0,0x2(%rbx)
  402ebc:	b8 00 00 00 00       	mov    $0x0,%eax
  402ec1:	5b                   	pop    %rbx
  402ec2:	c3                   	retq   

0000000000402ec3 <check>:
  402ec3:	89 f8                	mov    %edi,%eax
  402ec5:	c1 e8 1c             	shr    $0x1c,%eax
  402ec8:	85 c0                	test   %eax,%eax
  402eca:	74 1d                	je     402ee9 <check+0x26>
  402ecc:	b9 00 00 00 00       	mov    $0x0,%ecx
  402ed1:	eb 0b                	jmp    402ede <check+0x1b>
  402ed3:	89 f8                	mov    %edi,%eax
  402ed5:	d3 e8                	shr    %cl,%eax
  402ed7:	3c 0a                	cmp    $0xa,%al
  402ed9:	74 14                	je     402eef <check+0x2c>
  402edb:	83 c1 08             	add    $0x8,%ecx
  402ede:	83 f9 1f             	cmp    $0x1f,%ecx
  402ee1:	7e f0                	jle    402ed3 <check+0x10>
  402ee3:	b8 01 00 00 00       	mov    $0x1,%eax
  402ee8:	c3                   	retq   
  402ee9:	b8 00 00 00 00       	mov    $0x0,%eax
  402eee:	c3                   	retq   
  402eef:	b8 00 00 00 00       	mov    $0x0,%eax
  402ef4:	c3                   	retq   

0000000000402ef5 <gencookie>:
  402ef5:	53                   	push   %rbx
  402ef6:	83 c7 01             	add    $0x1,%edi
  402ef9:	e8 a2 dd ff ff       	callq  400ca0 <srandom@plt>
  402efe:	e8 bd de ff ff       	callq  400dc0 <random@plt>
  402f03:	89 c3                	mov    %eax,%ebx
  402f05:	89 c7                	mov    %eax,%edi
  402f07:	e8 b7 ff ff ff       	callq  402ec3 <check>
  402f0c:	85 c0                	test   %eax,%eax
  402f0e:	74 ee                	je     402efe <gencookie+0x9>
  402f10:	89 d8                	mov    %ebx,%eax
  402f12:	5b                   	pop    %rbx
  402f13:	c3                   	retq   
  402f14:	66 2e 0f 1f 84 00 00 	nopw   %cs:0x0(%rax,%rax,1)
  402f1b:	00 00 00 
  402f1e:	66 90                	xchg   %ax,%ax

0000000000402f20 <__libc_csu_init>:
  402f20:	41 57                	push   %r15
  402f22:	41 56                	push   %r14
  402f24:	41 89 ff             	mov    %edi,%r15d
  402f27:	41 55                	push   %r13
  402f29:	41 54                	push   %r12
  402f2b:	4c 8d 25 de 1e 20 00 	lea    0x201ede(%rip),%r12        # 604e10 <__frame_dummy_init_array_entry>
  402f32:	55                   	push   %rbp
  402f33:	48 8d 2d de 1e 20 00 	lea    0x201ede(%rip),%rbp        # 604e18 <__init_array_end>
  402f3a:	53                   	push   %rbx
  402f3b:	49 89 f6             	mov    %rsi,%r14
  402f3e:	49 89 d5             	mov    %rdx,%r13
  402f41:	4c 29 e5             	sub    %r12,%rbp
  402f44:	48 83 ec 08          	sub    $0x8,%rsp
  402f48:	48 c1 fd 03          	sar    $0x3,%rbp
  402f4c:	e8 f7 dc ff ff       	callq  400c48 <_init>
  402f51:	48 85 ed             	test   %rbp,%rbp
  402f54:	74 20                	je     402f76 <__libc_csu_init+0x56>
  402f56:	31 db                	xor    %ebx,%ebx
  402f58:	0f 1f 84 00 00 00 00 	nopl   0x0(%rax,%rax,1)
  402f5f:	00 
  402f60:	4c 89 ea             	mov    %r13,%rdx
  402f63:	4c 89 f6             	mov    %r14,%rsi
  402f66:	44 89 ff             	mov    %r15d,%edi
  402f69:	41 ff 14 dc          	callq  *(%r12,%rbx,8)
  402f6d:	48 83 c3 01          	add    $0x1,%rbx
  402f71:	48 39 eb             	cmp    %rbp,%rbx
  402f74:	75 ea                	jne    402f60 <__libc_csu_init+0x40>
  402f76:	48 83 c4 08          	add    $0x8,%rsp
  402f7a:	5b                   	pop    %rbx
  402f7b:	5d                   	pop    %rbp
  402f7c:	41 5c                	pop    %r12
  402f7e:	41 5d                	pop    %r13
  402f80:	41 5e                	pop    %r14
  402f82:	41 5f                	pop    %r15
  402f84:	c3                   	retq   
  402f85:	90                   	nop
  402f86:	66 2e 0f 1f 84 00 00 	nopw   %cs:0x0(%rax,%rax,1)
  402f8d:	00 00 00 

0000000000402f90 <__libc_csu_fini>:
  402f90:	f3 c3                	repz retq 

Disassembly of section .fini:

0000000000402f94 <_fini>:
  402f94:	48 83 ec 08          	sub    $0x8,%rsp
  402f98:	48 83 c4 08          	add    $0x8,%rsp
  402f9c:	c3                   	retq   
